(dp0
(S'1317'
p1
I0
tp2
F40.92264908029576
s(S'020'
p3
I0
tp4
F-27.332715895954994
s(S'1224'
p5
I0
tp6
F12.012774611573398
s(S'2430'
p7
I2
tp8
F-160.68989358062123
s(S'2826'
p9
I2
tp10
F23.94310596707676
s(S'1423'
p11
I0
tp12
F-32.145746368440655
s(S'824'
p13
I0
tp14
F11.907490864145927
s(S'1628'
p15
I1
tp16
F-24.320268929658734
s(S'2331'
p17
I1
tp18
F1.1658305122526658
s(S'1819'
p19
I0
tp20
F-51.05195115262653
s(S'2823'
p21
I1
tp22
F-14.360181272284244
s(S'320'
p23
I0
tp24
F96.97324568160076
s(S'823'
p25
I1
tp26
F56.41555137848867
s(S'1623'
p27
I0
tp28
F-14.928747783258231
s(S'2725'
p29
I0
tp30
F22.987334690993762
s(S'2526'
p31
I0
tp32
F12.631182165664997
s(S'3024'
p33
I2
tp34
F-18.24897915005573
s(S'1419'
p35
I1
tp36
F64.12059383167248
s(S'1524'
p37
I2
tp38
F8.773673845478442
s(S'2828'
p39
I0
tp40
I-200
s(S'1919'
p41
I1
tp42
F-31.017235733370065
s(S'2228'
p43
I2
tp44
F-36.83930587332969
s(S'2219'
p45
I1
tp46
F-21.40112736646116
s(S'029'
p47
I0
tp48
I-200
s(S'629'
p49
I0
tp50
F56.30105425921291
s(S'2428'
p51
I2
tp52
F-71.39513232353588
s(S'2121'
p53
I1
tp54
F-67.19225376226511
s(S'1428'
p55
I0
tp56
F47.48233430995245
s(S'1522'
p57
I2
tp58
F13.047493541312265
s(S'1431'
p59
I0
tp60
F-16.344577842139945
s(S'2024'
p61
I0
tp62
F-39.176775149801756
s(S'1325'
p63
I1
tp64
F39.68426766222939
s(S'1519'
p65
I2
tp66
I-199
s(S'2318'
p67
I1
tp68
F-89.15702609592627
s(S'2421'
p69
I0
tp70
I-200
s(S'928'
p71
I1
tp72
F58.37470054232823
s(S'2618'
p73
I2
tp74
F-17.87757266947834
s(S'1928'
p75
I2
tp76
F-11.256412123221773
s(S'1829'
p77
I2
tp78
F-25.920978045727423
s(S'1223'
p79
I2
tp80
F-38.405172135115144
s(S'219'
p81
I1
tp82
F113.75125814172539
s(S'2132'
p83
I1
tp84
I-198
s(S'624'
p85
I0
tp86
F54.46668828230389
s(S'1422'
p87
I2
tp88
F-42.79244117604923
s(S'1619'
p89
I1
tp90
F-81.75942329860109
s(S'1223'
p91
I1
tp92
F-26.84441639906031
s(S'2019'
p93
I1
tp94
F-83.127939759161
s(S'2332'
p95
I1
tp96
F-12.67326025179841
s(S'1419'
p97
I2
tp98
F-34.57600000000001
s(S'731'
p99
I0
tp100
F56.975512323103445
s(S'1529'
p101
I2
tp102
F-11.673389572283432
s(S'1924'
p103
I2
tp104
F7.379492995449236
s(S'2521'
p105
I2
tp106
F0.0667428568088182
s(S'1923'
p107
I1
tp108
F-38.40146253347179
s(S'220'
p109
I0
tp110
F102.84942455464459
s(S'1630'
p111
I1
tp112
F-32.027663299784436
s(S'131'
p113
I0
tp114
F56.460638836932866
s(S'2631'
p115
I1
tp116
F6.754822263141068
s(S'2920'
p117
I1
tp118
F-30.779035081657554
s(S'1723'
p119
I1
tp120
F-29.919994831456496
s(S'1321'
p121
I0
tp122
F-43.22835267056434
s(S'2228'
p123
I1
tp124
F-19.841973024072647
s(S'1525'
p125
I1
tp126
F31.83742105440285
s(S'924'
p127
I2
tp128
F-7.793866893115833
s(S'1725'
p129
I1
tp130
F29.540591123776036
s(S'1523'
p131
I0
tp132
F34.87973461216787
s(S'2927'
p133
I0
tp134
F-0.34242989601958496
s(S'1828'
p135
I0
tp136
F-30.290266623020734
s(S'2123'
p137
I2
tp138
F15.546102091551454
s(S'1319'
p139
I2
tp140
F-26.09901781780053
s(S'1024'
p141
I1
tp142
F56.310772828010414
s(S'1719'
p143
I2
tp144
I-199
s(S'1226'
p145
I2
tp146
F40.9867044297771
s(S'1825'
p147
I1
tp148
F26.401913781594462
s(S'3031'
p149
I2
tp150
F-43.68156355305151
s(S'2126'
p151
I1
tp152
F-33.11930615711387
s(S'2226'
p153
I0
tp154
F7.890558277329772
s(S'2820'
p155
I2
tp156
F12.778879192245078
s(S'1625'
p157
I2
tp158
F-21.37893288248642
s(S'420'
p159
I1
tp160
F99.26959228567613
s(S'1328'
p161
I0
tp162
F49.079047456255616
s(S'2127'
p163
I1
tp164
F23.142920194483935
s(S'921'
p165
I1
tp166
F69.48467739306396
s(S'2524'
p167
I2
tp168
F-34.91987095922432
s(S'2421'
p169
I1
tp170
F-46.597352067652004
s(S'1821'
p171
I0
tp172
F-32.44984246509747
s(S'2128'
p173
I2
tp174
F-38.956227386879455
s(S'1620'
p175
I1
tp176
F-122.92763193724554
s(S'1924'
p177
I1
tp178
F-57.90403964372262
s(S'2728'
p179
I1
tp180
F-4.288026387205433
s(S'3021'
p181
I1
tp182
F11.316024468018274
s(S'1730'
p183
I0
tp184
F-12.317323939811516
s(S'2426'
p185
I0
tp186
F-36.425472133084966
s(S'2923'
p187
I1
tp188
F32.318090981200115
s(S'2418'
p189
I2
tp190
F-111.56958909309192
s(S'1326'
p191
I2
tp192
F35.009788535324155
s(S'3026'
p193
I1
tp194
F36.30698374755787
s(S'525'
p195
I2
tp196
F54.30387434860987
s(S'229'
p197
I2
tp198
F57.805200743489685
s(S'1722'
p199
I1
tp200
F10.42263074571286
s(S'1124'
p201
I0
tp202
F15.611684095527618
s(S'2122'
p203
I0
tp204
F-68.51891990655872
s(S'1327'
p205
I2
tp206
F51.175703676744455
s(S'2119'
p207
I1
tp208
I-199
s(S'2723'
p209
I0
tp210
F-34.185763780758855
s(S'2429'
p211
I1
tp212
F-41.699376975446114
s(S'1718'
p213
I0
tp214
F37.353865945707945
s(S'1225'
p215
I0
tp216
F-25.557939950476367
s(S'2028'
p217
I1
tp218
F-54.39148854957931
s(S'3032'
p219
I0
tp220
F-38.84
s(S'2030'
p221
I1
tp222
F8.060595489656869
s(S'1420'
p223
I0
tp224
F-59.35131946650465
s(S'1122'
p225
I2
tp226
F43.46698746070077
s(S'2830'
p227
I0
tp228
F-39.996536916641915
s(S'1022'
p229
I2
tp230
F-16.075004859157982
s(S'2120'
p231
I2
tp232
F-9.498912301967566
s(S'2131'
p233
I0
tp234
F-38.901302400000006
s(S'2130'
p235
I2
tp236
F-81.22176627968605
s(S'423'
p237
I1
tp238
F57.895929728375734
s(S'1931'
p239
I2
tp240
F-64.59380558264209
s(S'1730'
p241
I2
tp242
F-35.19641397341646
s(S'1427'
p243
I1
tp244
F5.136663060571873
s(S'1423'
p245
I2
tp246
F-26.33626884321618
s(S'1920'
p247
I2
tp248
F-80.86647609815029
s(S'1320'
p249
I0
tp250
F-5.456309758617385
s(S'2527'
p251
I0
tp252
F5.018687562133039
s(S'426'
p253
I2
tp254
F53.62047311251493
s(S'732'
p255
I1
tp256
I7
s(S'1627'
p257
I1
tp258
F39.52355717196958
s(S'126'
p259
I0
tp260
F55.22700227191956
s(S'2329'
p261
I2
tp262
F-83.82066430143504
s(S'2727'
p263
I1
tp264
F-30.972920376746444
s(S'521'
p265
I0
tp266
F76.3043494311892
s(S'1726'
p267
I2
tp268
F14.69113846217334
s(S'532'
p269
I0
tp270
F8.02524216426582
s(S'1120'
p271
I1
tp272
F49.872292367887304
s(S'922'
p273
I0
tp274
F-12.148655784568163
s(S'620'
p275
I1
tp276
F-12.927475580997207
s(S'1521'
p277
I2
tp278
F-71.28367319019497
s(S'1430'
p279
I0
tp280
F-23.677131691804494
s(S'830'
p281
I1
tp282
F60.15055013519029
s(S'025'
p283
I1
tp284
F-21.218145132494595
s(S'1229'
p285
I1
tp286
F-3.7379660625999307
s(S'2523'
p287
I2
tp288
F16.19682610075633
s(S'228'
p289
I0
tp290
F54.90954783086037
s(S'932'
p291
I1
tp292
I7
s(S'2519'
p293
I1
tp294
I-199
s(S'2718'
p295
I0
tp296
I-200
s(S'1720'
p297
I2
tp298
F-58.03031886909389
s(S'2730'
p299
I1
tp300
F-61.483170536948926
s(S'2719'
p301
I2
tp302
F-24.61247341583939
s(S'2327'
p303
I0
tp304
F7.22834193755519
s(S'1522'
p305
I1
tp306
F-45.637492827901895
s(S'2819'
p307
I1
tp308
F-18.85725855984882
s(S'2026'
p309
I0
tp310
F-20.359761774083935
s(S'1530'
p311
I1
tp312
F20.997734413670997
s(S'2225'
p313
I1
tp314
F-30.738161771268327
s(S'1930'
p315
I0
tp316
F-53.27561076674624
s(S'2719'
p317
I1
tp318
F10.724485428759543
s(S'2027'
p319
I1
tp320
F-29.539641735247606
s(S'1623'
p321
I2
tp322
F-37.6358528804608
s(S'122'
p323
I1
tp324
F62.295512952267785
s(S'1827'
p325
I2
tp326
F-31.99104558546871
s(S'2629'
p327
I0
tp328
F-55.146186058919284
s(S'2526'
p329
I2
tp330
F-16.806480172342905
s(S'2018'
p331
I0
tp332
F-40.677322665917195
s(S'2828'
p333
I2
tp334
F15.010409740720856
s(S'428'
p335
I1
tp336
F57.99521222833145
s(S'127'
p337
I2
tp338
F56.40572726462564
s(S'1822'
p339
I1
tp340
F-42.9747938326108
s(S'2328'
p341
I0
tp342
F-66.4991613322856
s(S'029'
p343
I2
tp344
F59.48217346111355
s(S'1130'
p345
I1
tp346
F57.5651237976591
s(S'1626'
p347
I1
tp348
F28.443341599483503
s(S'2532'
p349
I0
tp350
F-26.874842092328727
s(S'1522'
p351
I0
tp352
F-35.806065677549874
s(S'2924'
p353
I0
tp354
I-199
s(S'1829'
p355
I0
tp356
F-35.26394517978726
s(S'2323'
p357
I1
tp358
F7.1287855286154995
s(S'317'
p359
I1
tp360
F48.28212287459956
s(S'2720'
p361
I1
tp362
F-11.494198797717743
s(S'2231'
p363
I1
tp364
F-45.11238181820031
s(S'1518'
p365
I1
tp366
F82.47871903767228
s(S'3029'
p367
I1
tp368
F-32.213324799423006
s(S'1831'
p369
I1
tp370
F-35.37511791310871
s(S'1721'
p371
I0
tp372
F-42.85797413788515
s(S'1127'
p373
I1
tp374
F57.508250311975374
s(S'929'
p375
I2
tp376
F54.34654949052266
s(S'2419'
p377
I1
tp378
F20.301961977189393
s(S'2832'
p379
I2
tp380
F-37.40962001906647
s(S'1929'
p381
I1
tp382
F-46.53505968916162
s(S'1020'
p383
I0
tp384
F-14.119010128789839
s(S'1629'
p385
I0
tp386
F-16.186654455239648
s(S'2423'
p387
I2
tp388
F15.380448612315654
s(S'1222'
p389
I1
tp390
F37.80807806974246
s(S'2622'
p391
I1
tp392
F-50.133795044904275
s(S'424'
p393
I2
tp394
F55.38952990608741
s(S'826'
p395
I1
tp396
F52.9330258396418
s(S'2222'
p397
I1
tp398
F-34.29834754766371
s(S'3027'
p399
I0
tp400
F-9.009299263998379
s(S'2020'
p401
I1
tp402
F-96.56956640343878
s(S'1529'
p403
I0
tp404
F-25.631657436724048
s(S'718'
p405
I2
tp406
F176.80335195077652
s(S'1219'
p407
I1
tp408
F87.4251823673546
s(S'1220'
p409
I2
tp410
F-32.084322362720656
s(S'721'
p411
I1
tp412
F-17.224939325040268
s(S'2520'
p413
I1
tp414
F-57.74364498817594
s(S'2425'
p415
I0
tp416
F-23.870079947672956
s(S'817'
p417
I1
tp418
F45.23475975901771
s(S'1631'
p419
I2
tp420
F-25.124554206414523
s(S'1321'
p421
I2
tp422
F-61.342093624191314
s(S'2630'
p423
I2
tp424
F-80.93319347904921
s(S'2419'
p425
I0
tp426
I-200
s(S'1029'
p427
I0
tp428
F54.053830083027506
s(S'2724'
p429
I0
tp430
F-34.66361357718082
s(S'632'
p431
I1
tp432
F8.08
s(S'1123'
p433
I0
tp434
F-14.92849334961939
s(S'2123'
p435
I0
tp436
I-199
s(S'2330'
p437
I0
tp438
F-56.99267025206293
s(S'1319'
p439
I0
tp440
F55.203359216129364
s(S'2321'
p441
I2
tp442
F-42.24346759054038
s(S'026'
p443
I0
tp444
F-19.921888557848643
s(S'1719'
p445
I0
tp446
I-200
s(S'622'
p447
I0
tp448
F58.76922340253
s(S'3031'
p449
I0
tp450
F-57.66079015045663
s(S'1730'
p451
I1
tp452
F14.91851379520208
s(S'1421'
p453
I0
tp454
F-35.60423817494668
s(S'2226'
p455
I2
tp456
F-28.060032741059906
s(S'030'
p457
I1
tp458
F-23.56517443676785
s(S'2324'
p459
I1
tp460
F-49.10341434360409
s(S'1221'
p461
I1
tp462
F58.829883070482396
s(S'2026'
p463
I2
tp464
I-199
s(S'2426'
p465
I2
tp466
F12.60771220148819
s(S'2130'
p467
I0
tp468
F-15.708976940761692
s(S'1932'
p469
I2
tp470
F4.211381990094456
s(S'2821'
p471
I1
tp472
F2.701412839676532
s(S'2930'
p473
I1
tp474
F-53.08867156470847
s(S'1728'
p475
I2
tp476
F2.49030809346751
s(S'017'
p477
I0
tp478
F51.66559757292433
s(S'1624'
p479
I2
tp480
F7.882953336860194
s(S'2620'
p481
I2
tp482
I-198
s(S'725'
p483
I0
tp484
F49.66691167520567
s(S'2524'
p485
I0
tp486
I-199
s(S'2923'
p487
I2
tp488
F-12.234086994730319
s(S'032'
p489
I2
tp490
F-66.20584155835289
s(S'1821'
p491
I2
tp492
F-47.78591450801377
s(S'2128'
p493
I0
tp494
F-21.37850146170298
s(S'2022'
p495
I2
tp496
F-38.0008035317964
s(S'2625'
p497
I1
tp498
F10.10527198233498
s(S'2018'
p499
I2
tp500
F-66.87474736347625
s(S'2523'
p501
I1
tp502
F-29.735411593739798
s(S'1925'
p503
I2
tp504
F-32.575794569353235
s(S'2418'
p505
I0
tp506
I-200
s(S'2428'
p507
I0
tp508
F-67.88940898806362
s(S'019'
p509
I1
tp510
F-18.89234069226257
s(S'2518'
p511
I2
tp512
F-64.0683779076147
s(S'1327'
p513
I1
tp514
F-16.87285960936013
s(S'419'
p515
I0
tp516
F128.10851814723802
s(S'1826'
p517
I0
tp518
F-30.008842157982727
s(S'926'
p519
I1
tp520
F48.722138743599096
s(S'2531'
p521
I1
tp522
F-36.55974301815689
s(S'1723'
p523
I2
tp524
F22.7156147178155
s(S'1318'
p525
I2
tp526
F95.03364538622361
s(S'2320'
p527
I0
tp528
F-105.10940968721847
s(S'1020'
p529
I2
tp530
F-2.720979923331024
s(S'1718'
p531
I2
tp532
F-24.49137309042628
s(S'417'
p533
I2
tp534
F38.63049327993993
s(S'2430'
p535
I1
tp536
I-199
s(S'2029'
p537
I2
tp538
F-26.064503426959558
s(S'825'
p539
I2
tp540
F50.57715557252356
s(S'2830'
p541
I2
tp542
F-33.94010391290469
s(S'2830'
p543
I1
tp544
F-19.839443009833815
s(S'1832'
p545
I2
tp546
F-32.2428449966031
s(S'1330'
p547
I0
tp548
F-8.079697498394705
s(S'2330'
p549
I1
tp550
F-13.794215802075403
s(S'1931'
p551
I0
tp552
F-31.88656129490655
s(S'918'
p553
I1
tp554
F206.85198581350664
s(S'522'
p555
I2
tp556
F52.67779690199121
s(S'330'
p557
I2
tp558
F58.313517876539656
s(S'2932'
p559
I2
tp560
I2
s(S'1824'
p561
I2
tp562
F-26.90217225944669
s(S'722'
p563
I2
tp564
F39.49671258026355
s(S'2221'
p565
I0
tp566
F-101.49842992242125
s(S'1921'
p567
I1
tp568
F-62.66662960873142
s(S'222'
p569
I0
tp570
F57.326200981320795
s(S'2721'
p571
I0
tp572
F-35.32459865055038
s(S'1418'
p573
I1
tp574
F88.0983155016363
s(S'3024'
p575
I1
tp576
F-13.412501018781505
s(S'2023'
p577
I0
tp578
F-36.52487909041237
s(S'2329'
p579
I0
tp580
F-104.26238256573657
s(S'1323'
p581
I0
tp582
F36.71227516741032
s(S'1228'
p583
I1
tp584
F56.774267006779894
s(S'1626'
p585
I2
tp586
F-29.21777886394436
s(S'1926'
p587
I0
tp588
F-23.989571597607707
s(S'1724'
p589
I0
tp590
F-30.277713994413805
s(S'1429'
p591
I2
tp592
F-0.017347018208861975
s(S'2632'
p593
I2
tp594
F-35.743198390968914
s(S'1121'
p595
I2
tp596
F-25.124725015517093
s(S'1324'
p597
I1
tp598
F29.882982143419223
s(S'1323'
p599
I1
tp600
F-2.4943059738817013
s(S'024'
p601
I2
tp602
F56.587664308548746
s(S'2318'
p603
I2
tp604
I-199
s(S'1720'
p605
I0
tp606
F-131.42123852503119
s(S'1217'
p607
I0
tp608
F48.870766743461694
s(S'2628'
p609
I0
tp610
F-35.93705627072822
s(S'129'
p611
I1
tp612
F58.970411660264276
s(S'2822'
p613
I2
tp614
F-21.15990701267207
s(S'2818'
p615
I2
tp616
F-30.39498038175272
s(S'2124'
p617
I0
tp618
F-32.549260287653034
s(S'1332'
p619
I0
tp620
F16.442560843805666
s(S'1618'
p621
I1
tp622
F20.418225657971128
s(S'1422'
p623
I1
tp624
F24.00432623600974
s(S'1617'
p625
I0
tp626
I1
s(S'1930'
p627
I2
tp628
I-199
s(S'523'
p629
I0
tp630
F53.926726425284805
s(S'2619'
p631
I0
tp632
F-68.87222542593807
s(S'1528'
p633
I0
tp634
F-25.747164009331776
s(S'1624'
p635
I0
tp636
F-31.819560215321488
s(S'822'
p637
I0
tp638
F-8.691069291817907
s(S'1622'
p639
I1
tp640
F-43.33394619914056
s(S'1922'
p641
I1
tp642
F-65.66671875666844
s(S'2919'
p643
I1
tp644
F28.939547343551027
s(S'1928'
p645
I0
tp646
F-55.80752556198977
s(S'2424'
p647
I0
tp648
F-39.64
s(S'2921'
p649
I1
tp650
F10.342056088128976
s(S'2829'
p651
I1
tp652
I-199
s(S'2328'
p653
I2
tp654
F-92.42635506214972
s(S'1625'
p655
I0
tp656
F34.43313445357528
s(S'1927'
p657
I2
tp658
F14.325389363651247
s(S'2218'
p659
I0
tp660
F-67.41023835838148
s(S'028'
p661
I1
tp662
F-19.425000130174343
s(S'628'
p663
I1
tp664
F58.76675578670567
s(S'1724'
p665
I1
tp666
F32.81025064540009
s(S'530'
p667
I1
tp668
F60.61107727573132
s(S'1122'
p669
I0
tp670
F-18.59347734271272
s(S'2120'
p671
I0
tp672
F-99.29395867931807
s(S'2322'
p673
I2
tp674
F19.657885255386724
s(S'027'
p675
I0
tp676
F52.1897422332396
s(S'2319'
p677
I0
tp678
F-74.1541258795821
s(S'1721'
p679
I2
tp680
F-35.34629282594694
s(S'3030'
p681
I0
tp682
F17.57144258985373
s(S'2230'
p683
I2
tp684
I-199
s(S'2032'
p685
I1
tp686
F5.960769645344837
s(S'2629'
p687
I2
tp688
F-40.17464890975285
s(S'2732'
p689
I0
tp690
I0
s(S'2832'
p691
I0
tp692
I-199
s(S'025'
p693
I2
tp694
F57.69610599336681
s(S'1425'
p695
I1
tp696
F-29.233009302606586
s(S'2623'
p697
I2
tp698
F-7.667885011265319
s(S'724'
p699
I0
tp700
F53.8330202224457
s(S'2525'
p701
I0
tp702
F-26.540541154288327
s(S'2223'
p703
I2
tp704
F-3.004671052409787
s(S'3027'
p705
I2
tp706
I2
s(S'332'
p707
I2
tp708
F6.2
s(S'925'
p709
I1
tp710
F48.22733679847466
s(S'2420'
p711
I1
tp712
F-54.08004731769657
s(S'1826'
p713
I2
tp714
F-26.680149092659917
s(S'2129'
p715
I0
tp716
F-90.33610603478613
s(S'2021'
p717
I2
tp718
F-63.590295953672126
s(S'1621'
p719
I1
tp720
F-37.01544805180851
s(S'2729'
p721
I1
tp722
F-6.294486044141557
s(S'2721'
p723
I2
tp724
F-35.441750048627895
s(S'1222'
p725
I2
tp726
F-26.78637949443156
s(S'1231'
p727
I0
tp728
F-8.538481527884628
s(S'1631'
p729
I0
tp730
F13.026830169042336
s(S'130'
p731
I1
tp732
F59.91473193178776
s(S'2630'
p733
I0
tp734
I-199
s(S'1432'
p735
I0
tp736
F-32.54454272
s(S'2724'
p737
I2
tp738
F-33.74460861886354
s(S'2229'
p739
I0
tp740
F-127.60870709337448
s(S'3022'
p741
I1
tp742
F-2.8700856144439584
s(S'1123'
p743
I2
tp744
F-5.871252156666252
s(S'2926'
p745
I1
tp746
F-18.85308104996448
s(S'2118'
p747
I1
tp748
F-28.002473605527886
s(S'2321'
p749
I0
tp750
F-51.68629718051599
s(S'026'
p751
I2
tp752
F56.23382698234946
s(S'2727'
p753
I0
tp754
F-31.313547261420325
s(S'230'
p755
I1
tp756
F59.83629792577516
s(S'2425'
p757
I2
tp758
F3.006999627735028
s(S'2031'
p759
I1
tp760
F-81.71999941367844
s(S'1421'
p761
I2
tp762
F-23.308727888715296
s(S'2528'
p763
I2
tp764
F-41.577365954085764
s(S'728'
p765
I1
tp766
F59.23827186264281
s(S'1126'
p767
I2
tp768
F-14.619446965892468
s(S'2529'
p769
I1
tp770
F-79.63172364518658
s(S'2227'
p771
I1
tp772
F-30.29219228605306
s(S'1331'
p773
I0
tp774
F-7.251093176502849
s(S'2124'
p775
I2
tp776
F5.926348410783548
s(S'1932'
p777
I0
tp778
F-37.24255474331404
s(S'1731'
p779
I0
tp780
F-39.800000000000004
s(S'322'
p781
I2
tp782
F51.26550136315782
s(S'917'
p783
I2
tp784
F45.7001656819049
s(S'120'
p785
I1
tp786
F101.86425938099106
s(S'2620'
p787
I0
tp788
F-55.0422182330792
s(S'1427'
p789
I2
tp790
F-25.904015331512113
s(S'820'
p791
I2
tp792
F55.99522759535555
s(S'2220'
p793
I0
tp794
F-75.47996494624259
s(S'2618'
p795
I0
tp796
F-75.69937090199032
s(S'2022'
p797
I0
tp798
I-199
s(S'2422'
p799
I2
tp800
F-32.233817927792614
s(S'1820'
p801
I1
tp802
F-17.938955267258194
s(S'324'
p803
I2
tp804
F56.35647247270128
s(S'2425'
p805
I1
tp806
F-24.16272043253774
s(S'1925'
p807
I0
tp808
F-33.71190189974607
s(S'717'
p809
I0
tp810
I0
s(S'919'
p811
I0
tp812
F111.62633613678713
s(S'1824'
p813
I1
tp814
F35.84678800104743
s(S'118'
p815
I2
tp816
F255.10478257095792
s(S'1524'
p817
I1
tp818
F44.50601583069038
s(S'2722'
p819
I1
tp820
F-30.345029098351723
s(S'1723'
p821
I0
tp822
F10.936706623022268
s(S'517'
p823
I1
tp824
F47.83827263768394
s(S'2929'
p825
I1
tp826
F-35.90071085215589
s(S'2419'
p827
I2
tp828
F-25.78060883895907
s(S'2320'
p829
I2
tp830
I-199
s(S'2118'
p831
I2
tp832
F-79.39290960126448
s(S'2125'
p833
I0
tp834
F-29.872917159507193
s(S'1026'
p835
I0
tp836
F46.56710613178675
s(S'020'
p837
I1
tp838
F91.01172726247233
s(S'2232'
p839
I2
tp840
F13.344237516260574
s(S'1224'
p841
I1
tp842
F-5.544155292242756
s(S'2029'
p843
I0
tp844
F-89.4121606264529
s(S'1324'
p845
I2
tp846
F-2.290026376519073
s(S'432'
p847
I1
tp848
I6
s(S'2224'
p849
I1
tp850
F-26.876826020948567
s(S'2521'
p851
I0
tp852
F-44.47700261968885
s(S'2026'
p853
I1
tp854
F17.45664931028843
s(S'2331'
p855
I2
tp856
F-36.7206761567244
s(S'1819'
p857
I1
tp858
F-53.01168158520218
s(S'1824'
p859
I0
tp860
F-0.2894923743665414
s(S'1426'
p861
I0
tp862
F-21.554144862786565
s(S'823'
p863
I0
tp864
F-22.422548142883517
s(S'2221'
p865
I2
tp866
I-199
s(S'2526'
p867
I1
tp868
F-29.786103561158
s(S'2023'
p869
I2
tp870
F-27.16616612307014
s(S'2024'
p871
I2
tp872
F-33.11601344790567
s(S'429'
p873
I1
tp874
F58.24764379281076
s(S'1823'
p875
I1
tp876
F27.30836457919367
s(S'1322'
p877
I0
tp878
F-30.100494586014797
s(S'1431'
p879
I2
tp880
F-22.25059488925728
s(S'3018'
p881
I2
tp882
F61.83992337203927
s(S'2219'
p883
I0
tp884
F-28.120649628404877
s(S'2619'
p885
I1
tp886
F-81.41577884349991
s(S'630'
p887
I1
tp888
F59.89466602701682
s(S'2925'
p889
I2
tp890
F37.237665937938075
s(S'1121'
p891
I0
tp892
F-22.14343838532433
s(S'923'
p893
I1
tp894
F52.62328549441205
s(S'2829'
p895
I0
tp896
F-69.92666341135282
s(S'1431'
p897
I1
tp898
F53.905692597221446
s(S'831'
p899
I0
tp900
I0
s(S'024'
p901
I0
tp902
F51.2026701595013
s(S'2518'
p903
I1
tp904
F-87.83737561052902
s(S'2318'
p905
I0
tp906
F-111.92277350949738
s(S'529'
p907
I0
tp908
F55.47290962605891
s(S'931'
p909
I2
tp910
F56.54267142363823
s(S'1918'
p911
I2
tp912
F-30.512669483352287
s(S'3029'
p913
I2
tp914
F10.547936119959804
s(S'2731'
p915
I0
tp916
F4.704
s(S'032'
p917
I1
tp918
F-17.628977950951473
s(S'1021'
p919
I2
tp920
F-5.773236662234545
s(S'627'
p921
I1
tp922
F57.51579964557812
s(S'526'
p923
I1
tp924
F55.45704785411508
s(S'2132'
p925
I0
tp926
F3.755228709419696
s(S'2827'
p927
I1
tp928
F8.696519266449332
s(S'619'
p929
I0
tp930
F131.69924339529058
s(S'727'
p931
I0
tp932
F52.92853003034976
s(S'1332'
p933
I1
tp934
F-30.732
s(S'425'
p935
I2
tp936
F56.25890268204165
s(S'1732'
p937
I1
tp938
F5.855725803105887
s(S'720'
p939
I1
tp940
F85.06445539410954
s(S'1520'
p941
I0
tp942
F-99.22856240404829
s(S'2521'
p943
I1
tp944
F-34.02508108617676
s(S'1230'
p945
I0
tp946
F-0.4583258167302091
s(S'2424'
p947
I2
tp948
F-35.71908965787288
s(S'1630'
p949
I0
tp950
F-22.056879883676807
s(S'1526'
p951
I2
tp952
F-21.744487324616294
s(S'3019'
p953
I0
tp954
I-199
s(S'2218'
p955
I2
tp956
F-58.15769767964814
s(S'1321'
p957
I1
tp958
F56.320982965125495
s(S'2228'
p959
I0
tp960
F-64.69163010566227
s(S'418'
p961
I1
tp962
F176.16240917176538
s(S'620'
p963
I2
tp964
F63.013074525031065
s(S'1828'
p965
I1
tp966
F-7.283536636623355
s(S'2322'
p967
I0
tp968
F-34.809656354522254
s(S'1227'
p969
I2
tp970
F-7.177269997750656
s(S'2319'
p971
I2
tp972
F-96.5564511604615
s(S'930'
p973
I0
tp974
F56.20580182527897
s(S'3030'
p975
I2
tp976
F-48.86273123534211
s(S'2230'
p977
I0
tp978
I-200
s(S'2831'
p979
I2
tp980
F1.1089562245448779
s(S'2432'
p981
I1
tp982
F6.087868944046138
s(S'328'
p983
I1
tp984
F57.5253570930696
s(S'920'
p985
I0
tp986
I-195
s(S'2325'
p987
I1
tp988
F16.27204451006915
s(S'319'
p989
I1
tp990
F115.10856334493846
s(S'030'
p991
I2
tp992
F60.37657865356691
s(S'1221'
p993
I2
tp994
F-27.398113530244935
s(S'1526'
p995
I1
tp996
F36.101770420045945
s(S'2623'
p997
I0
tp998
F16.843269320635066
s(S'2930'
p999
I2
tp1000
F22.770070012397014
s(S'1424'
p1001
I2
tp1002
F-22.80677084884012
s(S'2525'
p1003
I2
tp1004
F22.993496577714154
s(S'2223'
p1005
I0
tp1006
F-41.818957684337185
s(S'224'
p1007
I0
tp1008
F56.4813078670598
s(S'2129'
p1009
I2
tp1010
F-98.85826619906344
s(S'2021'
p1011
I0
tp1012
F-74.31986606889575
s(S'2421'
p1013
I2
tp1014
F-6.296777068297233
s(S'2624'
p1015
I1
tp1016
F-38.23790401390871
s(S'1025'
p1017
I2
tp1018
F41.04753899936542
s(S'1618'
p1019
I2
tp1020
F-35.0729742851076
s(S'3021'
p1021
I0
tp1022
F-32.824222334663034
s(S'1432'
p1023
I2
tp1024
F8.606730673107503
s(S'2125'
p1025
I2
tp1026
F10.83962264835201
s(S'2229'
p1027
I2
tp1028
F-79.32381132245015
s(S'1227'
p1029
I1
tp1030
F58.43377281843242
s(S'1219'
p1031
I0
tp1032
F-9.119824087872164
s(S'2530'
p1033
I1
tp1034
F-22.1433754704993
s(S'1722'
p1035
I0
tp1036
F-37.15161765250821
s(S'218'
p1037
I0
tp1038
F232.48880401328415
s(S'1822'
p1039
I0
tp1040
F-39.963125440007126
s(S'2122'
p1041
I1
tp1042
F12.06610826285951
s(S'2119'
p1043
I2
tp1044
I-199
s(S'1027'
p1045
I0
tp1046
F56.42447540804459
s(S'1118'
p1047
I0
tp1048
F125.93801115967459
s(S'1718'
p1049
I1
tp1050
F-38.222234567616
s(S'231'
p1051
I2
tp1052
F47.96539796278915
s(S'2028'
p1053
I0
tp1054
F-21.276018212245337
s(S'1420'
p1055
I1
tp1056
I-193
s(S'1629'
p1057
I2
tp1058
F-17.013038611496675
s(S'031'
p1059
I0
tp1060
F-58.89500515841945
s(S'1220'
p1061
I0
tp1062
F-37.71046152538845
s(S'1731'
p1063
I2
tp1064
F-2.8457885004502526
s(S'1019'
p1065
I0
tp1066
F106.34555762148729
s(S'2131'
p1067
I1
tp1068
F9.817113945449353
s(S'1825'
p1069
I0
tp1070
F-34.11077543975805
s(S'1427'
p1071
I0
tp1072
F49.733725054644225
s(S'820'
p1073
I0
tp1074
I5
s(S'1920'
p1075
I1
tp1076
F-4.04537230521478
s(S'3025'
p1077
I1
tp1078
F13.725802807992713
s(S'2422'
p1079
I0
tp1080
F17.454045162216335
s(S'1322'
p1081
I2
tp1082
F9.656610529444702
s(S'1531'
p1083
I2
tp1084
F-1.215334153927106
s(S'2522'
p1085
I0
tp1086
F-38.582839497582675
s(S'2918'
p1087
I2
tp1088
F-23.002437117996685
s(S'3020'
p1089
I2
tp1090
F-11.8290148187819
s(S'1726'
p1091
I1
tp1092
F-29.52106854779168
s(S'1520'
p1093
I2
tp1094
F-109.70888149001247
s(S'2922'
p1095
I2
tp1096
F39.714300698550865
s(S'1120'
p1097
I0
tp1098
F-19.760413753590505
s(S'2632'
p1099
I1
tp1100
F-36.62672975710944
s(S'025'
p1101
I0
tp1102
F56.7695165490534
s(S'1229'
p1103
I0
tp1104
F51.00447626685258
s(S'528'
p1105
I0
tp1106
F56.04687619635527
s(S'2125'
p1107
I1
tp1108
F4.081609093546902
s(S'2429'
p1109
I0
tp1110
F-109.08220881427818
s(S'117'
p1111
I1
tp1112
F44.02027534060359
s(S'2730'
p1113
I0
tp1114
F-6.51468495757048
s(S'2928'
p1115
I2
tp1116
F-29.2697710530493
s(S'617'
p1117
I1
tp1118
F53.00539240183333
s(S'2019'
p1119
I0
tp1120
F-48.81066239738209
s(S'2819'
p1121
I0
tp1122
I-199
s(S'920'
p1123
I2
tp1124
F-8.590084593298293
s(S'1423'
p1125
I1
tp1126
F31.78845917570174
s(S'2120'
p1127
I1
tp1128
I-198
s(S'1628'
p1129
I0
tp1130
F-45.60247787825831
s(S'618'
p1131
I0
tp1132
F189.25313486365155
s(S'726'
p1133
I0
tp1134
F51.565967227335
s(S'1124'
p1135
I2
tp1136
F-31.046751868138905
s(S'422'
p1137
I2
tp1138
F47.511056909184596
s(S'1930'
p1139
I1
tp1140
F-5.6699541931095805
s(S'2823'
p1141
I0
tp1142
F10.898936953032706
s(S'1419'
p1143
I0
tp1144
F-41.56566913191892
s(S'1426'
p1145
I2
tp1146
F-24.462733260015483
s(S'1623'
p1147
I1
tp1148
F31.726842803363922
s(S'1517'
p1149
I1
tp1150
I2
s(S'1922'
p1151
I2
tp1152
F15.685925413121229
s(S'1219'
p1153
I2
tp1154
I-194
s(S'2828'
p1155
I1
tp1156
F-21.489319239645177
s(S'2122'
p1157
I2
tp1158
F-48.561447578675
s(S'1919'
p1159
I2
tp1160
F-37.891999999999996
s(S'1525'
p1161
I2
tp1162
F-26.15496828483669
s(S'2328'
p1163
I1
tp1164
F-26.08592418068412
s(S'029'
p1165
I1
tp1166
F39.4175737714192
s(S'2918'
p1167
I1
tp1168
F-19.34562448369786
s(S'2121'
p1169
I2
tp1170
F-17.856288464658135
s(S'1724'
p1171
I2
tp1172
F-35.497039700845974
s(S'2429'
p1173
I2
tp1174
I-199
s(S'2924'
p1175
I1
tp1176
F4.49343936420601
s(S'2422'
p1177
I1
tp1178
F-33.227530826395075
s(S'2323'
p1179
I0
tp1180
F-42.37360122495284
s(S'1325'
p1181
I0
tp1182
F-23.77776169858781
s(S'1228'
p1183
I2
tp1184
F-0.26405749793497213
s(S'2231'
p1185
I0
tp1186
F2.670075850776742
s(S'2519'
p1187
I2
tp1188
F-70.21366306040252
s(S'3029'
p1189
I0
tp1190
F-39.69444051501159
s(S'1721'
p1191
I1
tp1192
F-49.15341524718704
s(S'1022'
p1193
I1
tp1194
F43.382042931950465
s(S'2629'
p1195
I1
tp1196
F-56.22403489792012
s(S'1729'
p1197
I2
tp1198
F-28.179427355412493
s(S'1929'
p1199
I2
tp1200
F-28.493603156265113
s(S'2132'
p1201
I2
tp1202
F-37.537888
s(S'431'
p1203
I1
tp1204
F58.4076456300294
s(S'626'
p1205
I2
tp1206
F51.14445823361459
s(S'1031'
p1207
I0
tp1208
F55.51342799278438
s(S'2622'
p1209
I0
tp1210
F28.16291512639654
s(S'1619'
p1211
I0
tp1212
I-200
s(S'430'
p1213
I0
tp1214
F57.65694690487304
s(S'2222'
p1215
I0
tp1216
F-38.28168475883137
s(S'225'
p1217
I0
tp1218
F56.61103875988784
s(S'2621'
p1219
I2
tp1220
F-16.234370721988046
s(S'2020'
p1221
I0
tp1222
F-90.09253120272714
s(S'1529'
p1223
I1
tp1224
F48.24130526141168
s(S'123'
p1225
I2
tp1226
F58.31608849645504
s(S'1826'
p1227
I1
tp1228
F25.875324665139743
s(S'1621'
p1229
I2
tp1230
F9.596754070891539
s(S'1923'
p1231
I0
tp1232
F-36.47977437075749
s(S'1230'
p1233
I2
tp1234
F48.948526523542576
s(S'1117'
p1235
I1
tp1236
F50.39455340850486
s(S'2729'
p1237
I2
tp1238
F-34.29966274895188
s(S'2520'
p1239
I2
tp1240
F-25.683743718440617
s(S'1630'
p1241
I2
tp1242
F13.56601690355372
s(S'3022'
p1243
I0
tp1244
F49.83920263437341
s(S'625'
p1245
I2
tp1246
F53.75011329318607
s(S'1526'
p1247
I0
tp1248
F-31.931473049860806
s(S'3019'
p1249
I2
tp1250
F38.53607952625836
s(S'1429'
p1251
I1
tp1252
F-12.530981554959723
s(S'828'
p1253
I0
tp1254
F57.34691985028149
s(S'1624'
p1255
I1
tp1256
F48.46050089253826
s(S'2724'
p1257
I1
tp1258
F0.25222071112684263
s(S'1725'
p1259
I0
tp1260
F-55.0109806532088
s(S'3026'
p1261
I2
tp1262
F-0.6316618917827128
s(S'2927'
p1263
I1
tp1264
F14.032454925194457
s(S'1123'
p1265
I1
tp1266
F45.20049159509881
s(S'2331'
p1267
I0
tp1268
F-34.91448579663856
s(S'026'
p1269
I1
tp1270
F-8.033799085216764
s(S'3028'
p1271
I2
tp1272
F48.18410284908113
s(S'3031'
p1273
I1
tp1274
F1.8506651404181296
s(S'2031'
p1275
I2
tp1276
F-69.75050788869575
s(S'2126'
p1277
I0
tp1278
F-35.966652247480255
s(S'1629'
p1279
I1
tp1280
F29.348029736272583
s(S'2226'
p1281
I1
tp1282
F-33.11301685979607
s(S'030'
p1283
I0
tp1284
F-19.709139492737417
s(S'1023'
p1285
I1
tp1286
F48.0232164039405
s(S'1221'
p1287
I0
tp1288
F-33.27510273297177
s(S'520'
p1289
I0
tp1290
F80.3565327023379
s(S'2024'
p1291
I1
tp1292
F20.57150544401612
s(S'2518'
p1293
I0
tp1294
F-74.19181207645751
s(S'1832'
p1295
I0
tp1296
I-200
s(S'2821'
p1297
I2
tp1298
F-26.879937707823718
s(S'2930'
p1299
I0
tp1300
F-58.33158493930999
s(S'2727'
p1301
I2
tp1302
F23.338290934223046
s(S'2524'
p1303
I1
tp1304
F0.5448864520384027
s(S'2423'
p1305
I0
tp1306
F-30.046829192856016
s(S'427'
p1307
I1
tp1308
F56.61688762858109
s(S'1821'
p1309
I1
tp1310
F-53.5075030183912
s(S'2128'
p1311
I1
tp1312
F-33.998597131896
s(S'327'
p1313
I0
tp1314
F55.10381301861575
s(S'1620'
p1315
I0
tp1316
F-84.95011351902042
s(S'125'
p1317
I1
tp1318
F58.49203658899263
s(S'2728'
p1319
I0
tp1320
F-28.053406354413454
s(S'2523'
p1321
I0
tp1322
F-28.959513821096333
s(S'2426'
p1323
I1
tp1324
F-28.58093118956168
s(S'818'
p1325
I0
tp1326
F185.2285721761532
s(S'2131'
p1327
I2
tp1328
F-39.0
s(S'019'
p1329
I2
tp1330
F115.20844490253599
s(S'2723'
p1331
I1
tp1332
F-24.487972987276112
s(S'1832'
p1333
I1
tp1334
F5.448335784580591
s(S'1722'
p1335
I2
tp1336
F-47.776782557053785
s(S'1124'
p1337
I1
tp1338
F-19.04932771021124
s(S'1818'
p1339
I2
tp1340
F-2.753482822283763
s(S'2119'
p1341
I0
tp1342
F-30.297521987658566
s(S'2320'
p1343
I1
tp1344
F-56.552626053051185
s(S'021'
p1345
I1
tp1346
F42.75086564053572
s(S'2822'
p1347
I1
tp1348
F24.181132141745795
s(S'1225'
p1349
I1
tp1350
F47.317226724489686
s(S'524'
p1351
I1
tp1352
F55.18739908310562
s(S'2028'
p1353
I2
tp1354
F-36.89803661574984
s(S'3032'
p1355
I1
tp1356
F-0.25818121394079263
s(S'2232'
p1357
I1
tp1358
F-29.592195501777404
s(S'2030'
p1359
I0
tp1360
I-200
s(S'2825'
p1361
I1
tp1362
F25.838692109873428
s(S'1729'
p1363
I0
tp1364
F-36.25532613782731
s(S'031'
p1365
I2
tp1366
F-65.73246692060071
s(S'2528'
p1367
I0
tp1368
I-200
s(S'2224'
p1369
I2
tp1370
F-32.569122948345786
s(S'217'
p1371
I2
tp1372
F39.527261480255014
s(S'1330'
p1373
I1
tp1374
F32.060566774311695
s(S'1728'
p1375
I0
tp1376
F-16.14218220793871
s(S'018'
p1377
I0
tp1378
F199.3979763174189
s(S'1818'
p1379
I1
tp1380
F33.12004206136363
s(S'1825'
p1381
I2
tp1382
F-31.30080813398571
s(S'1729'
p1383
I1
tp1384
F-34.2299638982931
s(S'121'
p1385
I0
tp1386
F44.82157442802937
s(S'2621'
p1387
I1
tp1388
F-75.45869138439656
s(S'2527'
p1389
I1
tp1390
F-26.027854067168395
s(S'2221'
p1391
I1
tp1392
F-16.555852990548654
s(S'1921'
p1393
I2
tp1394
F-73.31474108070147
s(S'2621'
p1395
I0
tp1396
I-199
s(S'2023'
p1397
I1
tp1398
F16.02722771648295
s(S'1823'
p1399
I2
tp1400
I-199
s(S'1531'
p1401
I0
tp1402
I0
s(S'2522'
p1403
I2
tp1404
F-37.84
s(S'318'
p1405
I2
tp1406
F216.63296019587833
s(S'2428'
p1407
I1
tp1408
F-38.66141876272085
s(S'1120'
p1409
I2
tp1410
F-14.848707415254996
s(S'922'
p1411
I1
tp1412
F53.55324480718653
s(S'1727'
p1413
I2
tp1414
F-34.997883865214504
s(S'1521'
p1415
I1
tp1416
F42.3812262809504
s(S'1430'
p1417
I1
tp1418
F21.767865566010066
s(S'1324'
p1419
I0
tp1420
F-18.89798200106145
s(S'1424'
p1421
I1
tp1422
F52.92446171228034
s(S'2121'
p1423
I0
tp1424
F-83.45769977092543
s(S'2718'
p1425
I1
tp1426
F-12.772582728534715
s(S'1830'
p1427
I2
tp1428
F-61.45005753454201
s(S'2730'
p1429
I2
tp1430
F-34.26932710289435
s(S'2928'
p1431
I0
tp1432
F-38.03657585267264
s(S'128'
p1433
I0
tp1434
F56.36692890501804
s(S'2327'
p1435
I1
tp1436
F-24.57073775872043
s(S'2819'
p1437
I2
tp1438
F-25.167541516867445
s(S'621'
p1439
I0
tp1440
F73.4241609516516
s(S'023'
p1441
I2
tp1442
F56.384915577037475
s(S'1621'
p1443
I0
tp1444
F-44.20441679740052
s(S'1030'
p1445
I0
tp1446
F54.43576967838984
s(S'1628'
p1447
I2
tp1448
F8.687356150839694
s(S'1618'
p1449
I0
tp1450
F-18.43644289913404
s(S'2225'
p1451
I0
tp1452
F-9.908065639917467
s(S'226'
p1453
I0
tp1454
F54.66802507404554
s(S'2823'
p1455
I2
tp1456
F-10.08704391999514
s(S'2423'
p1457
I1
tp1458
F-34.31479773378192
s(S'2027'
p1459
I0
tp1460
F-39.8524210944
s(S'2626'
p1461
I1
tp1462
F22.90604413282993
s(S'2721'
p1463
I1
tp1464
F10.218694006369315
s(S'822'
p1465
I1
tp1466
F49.8700598322228
s(S'1622'
p1467
I2
tp1468
F11.303639902577974
s(S'1922'
p1469
I0
tp1470
F-57.37089332032846
s(S'221'
p1471
I1
tp1472
F55.031351328693454
s(S'2723'
p1473
I2
tp1474
F39.50655625782347
s(S'2020'
p1475
I2
tp1476
F0.9228216382992471
s(S'2528'
p1477
I1
tp1478
I-199
s(S'1519'
p1479
I1
tp1480
F-43.791232699463016
s(S'1525'
p1481
I0
tp1482
F-29.9170089986658
s(S'2921'
p1483
I0
tp1484
F-24.32916523952599
s(S'2829'
p1485
I2
tp1486
F5.494242192518209
s(S'1918'
p1487
I1
tp1488
F-19.644936796489205
s(S'1320'
p1489
I1
tp1490
F-9.828017846805455
s(S'829'
p1491
I0
tp1492
F54.7289600711021
s(S'2218'
p1493
I1
tp1494
F-75.71295830163535
s(S'028'
p1495
I2
tp1496
F55.214535013541585
s(S'1830'
p1497
I1
tp1498
F4.89706219119368
s(S'2532'
p1499
I1
tp1500
F-37.631936
s(S'331'
p1501
I1
tp1502
F58.088801463194876
s(S'631'
p1503
I0
tp1504
F58.01511291131616
s(S'1829'
p1505
I1
tp1506
F-36.30438801811501
s(S'2323'
p1507
I2
tp1508
F-36.12948586952249
s(S'1325'
p1509
I2
tp1510
F-23.701751907409637
s(S'2720'
p1511
I0
tp1512
F-51.6090279140477
s(S'2231'
p1513
I2
tp1514
F-28.766218901029823
s(S'2519'
p1515
I0
tp1516
F5.20235153756955
s(S'2319'
p1517
I1
tp1518
I-198
s(S'1831'
p1519
I0
tp1520
F-33.87595631827007
s(S'1818'
p1521
I0
tp1522
F-3.0038654118568275
s(S'2127'
p1523
I0
tp1524
F-33.53233041898738
s(S'2832'
p1525
I1
tp1526
F-17.31773015430304
s(S'1929'
p1527
I0
tp1528
F-62.719296299521304
s(S'2325'
p1529
I2
tp1530
F-21.777926683008992
s(S'1222'
p1531
I0
tp1532
F-16.445624707839556
s(S'2019'
p1533
I2
tp1534
F-21.803401832721633
s(S'527'
p1535
I0
tp1536
F55.82167861512724
s(S'421'
p1537
I0
tp1538
F81.62672218367985
s(S'2622'
p1539
I2
tp1540
F-37.00786718897945
s(S'1619'
p1541
I2
tp1542
F-82.1669113633096
s(S'1425'
p1543
I0
tp1544
F-27.316542165979985
s(S'2222'
p1545
I2
tp1546
F17.230639281144313
s(S'3027'
p1547
I1
tp1548
F-9.376543357501358
s(S'2018'
p1549
I1
tp1550
F-67.73577022589139
s(S'2420'
p1551
I0
tp1552
F-16.425516504517404
s(S'2332'
p1553
I2
tp1554
F-38.54076212151272
s(S'326'
p1555
I0
tp1556
F54.51829620632035
s(S'1928'
p1557
I1
tp1558
F-42.04120439357626
s(S'1923'
p1559
I2
tp1560
F11.905482427895574
s(S'2624'
p1561
I2
tp1562
F2.8308879990488522
s(S'721'
p1563
I0
tp1564
F67.76173094937687
s(S'2729'
p1565
I0
tp1566
F-51.03603064168761
s(S'2520'
p1567
I0
tp1568
F-44.948977936657506
s(S'1231'
p1569
I1
tp1570
F54.33586582687317
s(S'2618'
p1571
I1
tp1572
F-83.74520954412296
s(S'1631'
p1573
I1
tp1574
F-9.621666481741393
s(S'1727'
p1575
I1
tp1576
F30.602019885440388
s(S'2630'
p1577
I1
tp1578
F-20.240680289798565
s(S'832'
p1579
I0
tp1580
I6
s(S'1521'
p1581
I0
tp1582
F-39.979647680758596
s(S'2229'
p1583
I1
tp1584
I-199
s(S'1924'
p1585
I0
tp1586
F-36.73984621159526
s(S'1725'
p1587
I2
tp1588
F-63.176974600167995
s(S'519'
p1589
I2
tp1590
F111.48261395406259
s(S'925'
p1591
I0
tp1592
F-14.581096130103457
s(S'2530'
p1593
I2
tp1594
F-33.4706153716533
s(S'1319'
p1595
I1
tp1596
F-21.589457040951363
s(S'2118'
p1597
I0
tp1598
F-72.41066339555684
s(S'2818'
p1599
I0
tp1600
F-18.373723214503585
s(S'1719'
p1601
I1
tp1602
F10.449907128686178
s(S'2031'
p1603
I0
tp1604
F-49.996535347835746
s(S'2126'
p1605
I2
tp1606
F9.899334608598426
s(S'2431'
p1607
I2
tp1608
F17.788408707710317
s(S'329'
p1609
I0
tp1610
F56.76610899406018
s(S'2831'
p1611
I1
tp1612
F-32.262070618413574
s(S'2324'
p1613
I0
tp1614
F11.43776953236097
s(S'1218'
p1615
I1
tp1616
F131.97706915318042
s(S'2529'
p1617
I0
tp1618
F-82.01036459464308
s(S'2227'
p1619
I2
tp1620
F8.070901708053622
s(S'2130'
p1621
I1
tp1622
F-87.21638344087904
s(S'1932'
p1623
I1
tp1624
F-35.36302222532268
s(S'2821'
p1625
I0
tp1626
F-20.747360142832008
s(S'2025'
p1627
I2
tp1628
F-28.248464117890812
s(S'821'
p1629
I2
tp1630
F63.07636224687951
s(S'2123'
p1631
I1
tp1632
F-18.247572326317375
s(S'1429'
p1633
I0
tp1634
F47.377589217087085
s(S'1417'
p1635
I0
tp1636
F30.15580813427139
s(S'3025'
p1637
I2
tp1638
F49.28718382679503
s(S'1620'
p1639
I2
tp1640
I-199
s(S'1820'
p1641
I2
tp1642
F-96.26557935753667
s(S'1532'
p1643
I0
tp1644
F13.875194593805624
s(S'1528'
p1645
I2
tp1646
F-13.898024522178337
s(S'1132'
p1647
I2
tp1648
F8.08
s(S'1925'
p1649
I1
tp1650
F27.162138047199406
s(S'1232'
p1651
I1
tp1652
F-30.416716594017366
s(S'1632'
p1653
I1
tp1654
F7.96778931886011
s(S'2327'
p1655
I2
tp1656
F-36.08987426322608
s(S'119'
p1657
I2
tp1658
F123.85550721051455
s(S'2332'
p1659
I0
tp1660
I-200
s(S'2918'
p1661
I0
tp1662
I1
s(S'1017'
p1663
I2
tp1664
F49.31071819089574
s(S'2722'
p1665
I2
tp1666
F28.28903090481532
s(S'2025'
p1667
I0
tp1668
F-32.42361620793379
s(S'1323'
p1669
I2
tp1670
F-27.70258498929912
s(S'2929'
p1671
I0
tp1672
F-33.62035978198537
s(S'1125'
p1673
I2
tp1674
F46.8359648535253
s(S'2418'
p1675
I1
tp1676
I-199
s(S'020'
p1677
I2
tp1678
F106.22054930944608
s(S'2920'
p1679
I0
tp1680
F2.338049763354663
s(S'2030'
p1681
I2
tp1682
F-81.07240157657672
s(S'2430'
p1683
I0
tp1684
F-48.62161608891265
s(S'2029'
p1685
I1
tp1686
F-92.44657858509194
s(S'1926'
p1687
I2
tp1688
F-29.64678197981916
s(S'729'
p1689
I2
tp1690
F56.383855169154856
s(S'2124'
p1691
I1
tp1692
F-36.60640487608283
s(S'2224'
p1693
I0
tp1694
F7.1755003997612885
s(S'227'
p1695
I0
tp1696
F54.179948493931505
s(S'2330'
p1697
I2
tp1698
F-60.49417497367904
s(S'1931'
p1699
I1
tp1700
F-75.86306843698648
s(S'323'
p1701
I2
tp1702
F56.90840938843562
s(S'1819'
p1703
I2
tp1704
F-65.37049544205561
s(S'2427'
p1705
I2
tp1706
F11.69932364607768
s(S'1224'
p1707
I2
tp1708
F-6.3350103408757406
s(S'1426'
p1709
I1
tp1710
F38.16290272091598
s(S'1921'
p1711
I0
tp1712
F7.243574035086548
s(S'723'
p1713
I2
tp1714
F54.68773687105631
s(S'3024'
p1715
I0
tp1716
F17.491646327737136
s(S'1524'
p1717
I0
tp1718
F-38.25189730451965
s(S'1823'
p1719
I0
tp1720
F10.875494266642779
s(S'2329'
p1721
I1
tp1722
F-35.11854525702407
s(S'325'
p1723
I1
tp1724
F59.02675849704557
s(S'1131'
p1725
I0
tp1726
F53.14568769951559
s(S'1926'
p1727
I1
tp1728
F18.085951557991354
s(S'2726'
p1729
I1
tp1730
F15.527298705131372
s(S'1421'
p1731
I1
tp1732
F43.5830159156486
s(S'1727'
p1733
I0
tp1734
F-38.27851711646366
s(S'531'
p1735
I2
tp1736
F58.95734455396897
s(S'1121'
p1737
I1
tp1738
F57.85786624637138
s(S'1428'
p1739
I2
tp1740
F-4.023358297875468
s(S'2632'
p1741
I0
tp1742
F2.569904618296186
s(S'1320'
p1743
I2
tp1744
F-64.00175782283122
s(S'831'
p1745
I1
tp1746
F59.52025860351336
s(S'024'
p1747
I1
tp1748
F-13.586670778773605
s(S'1519'
p1749
I0
tp1750
F-73.04756199782629
s(S'1830'
p1751
I0
tp1752
F-65.65429096389371
s(S'1720'
p1753
I1
tp1754
I-199
s(S'1126'
p1755
I0
tp1756
F43.49726914081759
s(S'2628'
p1757
I1
tp1758
F-12.931264205975246
s(S'2731'
p1759
I1
tp1760
F-32.26061996540827
s(S'032'
p1761
I0
tp1762
F-59.08497538513202
s(S'2326'
p1763
I2
tp1764
F14.213078718650477
s(S'1223'
p1765
I0
tp1766
F29.4887880883184
s(S'2818'
p1767
I1
tp1768
I-199
s(S'2932'
p1769
I0
tp1770
F-1.8971453823417568
s(S'1422'
p1771
I0
tp1772
F-37.28445109615461
s(S'827'
p1773
I0
tp1774
F55.79725643818003
s(S'2225'
p1775
I2
tp1776
F-30.24558815498351
s(S'2728'
p1777
I2
tp1778
F11.444971284115141
s(S'2027'
p1779
I2
tp1780
F-2.3276768787877042
s(S'1528'
p1781
I1
tp1782
F50.12012467397918
s(S'2625'
p1783
I2
tp1784
F-16.09753923024792
s(S'1827'
p1785
I1
tp1786
F26.674355663653937
s(S'321'
p1787
I0
tp1788
F77.62477409251352
s(S'2929'
p1789
I2
tp1790
F3.754075878759358
s(S'1622'
p1791
I0
tp1792
F-45.704537314963275
s(S'2627'
p1793
I2
tp1794
F18.417380516507762
s(S'2220'
p1795
I2
tp1796
F-48.35913681162877
s(S'2924'
p1797
I2
tp1798
F20.432075670161844
s(S'3023'
p1799
I2
tp1800
F51.60688060156296
s(S'2424'
p1801
I1
tp1802
F2.5803899749539836
s(S'2921'
p1803
I2
tp1804
F-22.349807905716844
s(S'1822'
p1805
I2
tp1806
F10.357921277045644
s(S'1625'
p1807
I1
tp1808
F-23.91965811065844
s(S'3019'
p1809
I1
tp1810
F-52.32210721634263
s(S'028'
p1811
I0
tp1812
F-14.343501444699278
s(S'719'
p1813
I0
tp1814
F125.0507368369308
s(S'1122'
p1815
I1
tp1816
F-2.245761130453701
s(S'924'
p1817
I0
tp1818
F54.325495483377885
s(S'1828'
p1819
I2
tp1820
F-25.089859995576752
s(S'2322'
p1821
I1
tp1822
F-34.167856139793976
s(S'2720'
p1823
I2
tp1824
F-76.88858735516052
s(S'623'
p1825
I1
tp1826
F57.35408958070013
s(S'1831'
p1827
I2
tp1828
F-37.44194135618967
s(S'1119'
p1829
I0
tp1830
F107.52510729007619
s(S'3030'
p1831
I1
tp1832
F-50.824643416225626
s(S'2230'
p1833
I1
tp1834
F-5.008102210333467
s(S'1127'
p1835
I2
tp1836
F-17.067363932300932
s(S'2432'
p1837
I2
tp1838
F-36.180313847858095
s(S'2732'
p1839
I1
tp1840
F5.880971506743781
s(S'3032'
p1841
I2
tp1842
F-38.5326784
s(S'022'
p1843
I2
tp1844
F54.01238659663504
s(S'2928'
p1845
I1
tp1846
F6.597836041429353
s(S'2920'
p1847
I2
tp1848
F16.095565016913525
s(S'1023'
p1849
I2
tp1850
F-16.446923294970205
s(S'1425'
p1851
I2
tp1852
F28.517350646936563
s(S'2628'
p1853
I2
tp1854
F-30.919354891018692
s(S'2623'
p1855
I1
tp1856
F-35.8032264543311
s(S'1328'
p1857
I2
tp1858
F-0.49265923376770226
s(S'2525'
p1859
I1
tp1860
F12.553610963169971
s(S'2223'
p1861
I1
tp1862
F-24.024800008304872
s(S'2420'
p1863
I2
tp1864
F-65.8064117292507
s(S'1021'
p1865
I1
tp1866
F63.88401788408839
s(S'3021'
p1867
I2
tp1868
F-5.23669034718214
s(S'2129'
p1869
I1
tp1870
F-32.166950643557165
s(S'2021'
p1871
I1
tp1872
F-6.626187178342575
s(S'730'
p1873
I0
tp1874
F57.55069280523311
s(S'1020'
p1875
I1
tp1876
F72.35250472262739
s(S'124'
p1877
I1
tp1878
F57.262736740022355
s(S'2624'
p1879
I0
tp1880
F7.590822473637447
s(S'721'
p1881
I2
tp1882
F-25.393650050838303
s(S'1128'
p1883
I0
tp1884
F56.38889433642645
s(S'1827'
p1885
I0
tp1886
F0.4948389500855539
s(S'920'
p1887
I1
tp1888
F67.53792176471683
s(S'1527'
p1889
I1
tp1890
F50.68286080246645
s(S'1326'
p1891
I0
tp1892
F-12.182789197922748
s(S'1028'
p1893
I2
tp1894
F56.833663576265074
s(S'2530'
p1895
I0
tp1896
F-35.71334005543331
s(S'518'
p1897
I1
tp1898
F224.31947092383365
s(S'2321'
p1899
I1
tp1900
F-23.31925044060347
s(S'1225'
p1901
I2
tp1902
F-25.71599722161222
s(S'2824'
p1903
I1
tp1904
F3.7513626919748413
s(S'1032'
p1905
I0
tp1906
F14.35157447768133
s(S'1129'
p1907
I1
tp1908
F55.45112720147109
s(S'2324'
p1909
I2
tp1910
F-37.607146988454055
s(S'1420'
p1911
I2
tp1912
F-29.30406414409808
s(S'2529'
p1913
I2
tp1914
F-3.874435660618694
s(S'2227'
p1915
I0
tp1916
F-37.98432589525196
s(S'031'
p1917
I1
tp1918
F38.62913541948882
s(S'1022'
p1919
I0
tp1920
F-10.399795003964137
s(S'1220'
p1921
I1
tp1922
F16.48003962370727
s(S'1731'
p1923
I1
tp1924
F-27.936878523608073
s(S'2822'
p1925
I0
tp1926
F-27.274682903542626
s(S'1728'
p1927
I1
tp1928
F-30.76334005877434
s(S'1919'
p1929
I0
tp1930
F9.0742923809797
s(S'2620'
p1931
I1
tp1932
F-38.95826805954155
s(S'2931'
p1933
I1
tp1934
F14.81729095038578
s(S'1329'
p1935
I0
tp1936
F49.66483936963397
s(S'820'
p1937
I1
tp1938
F-10.847257979936302
s(S'2220'
p1939
I1
tp1940
F-68.39001104162463
s(S'1920'
p1941
I0
tp1942
F-80.0762650593143
s(S'223'
p1943
I1
tp1944
F57.671863774961885
s(S'3025'
p1945
I0
tp1946
F-27.432393057325413
s(S'2022'
p1947
I1
tp1948
F14.392756938771655
s(S'1018'
p1949
I0
tp1950
F178.05800652136003
s(S'1820'
p1951
I0
tp1952
I-200
s(S'1322'
p1953
I1
tp1954
F-47.69028423859124
s(S'2025'
p1955
I1
tp1956
F24.603586634833324
s(S'2522'
p1957
I1
tp1958
F22.69916185022369
s(S'717'
p1959
I1
tp1960
F51.598809861199825
s(S'1726'
p1961
I0
tp1962
F4.879825553441858
s(S'1520'
p1963
I1
tp1964
F-16.183272967372094
s(S'819'
p1965
I1
tp1966
F108.90031886355426
s(S'922'
p1967
I2
tp1968
F-2.7821047648098443
s(S'1430'
p1969
I2
tp1970
F-9.549260685465459
s(S'2722'
p1971
I0
tp1972
F-32.23719491078928
s(S'2619'
p1973
I2
tp1974
F-13.840652621986822
s(S'2718'
p1975
I2
tp1976
F-67.30665838273742
s(S'1331'
p1977
I1
tp1978
F51.72492856455947
s(S'1918'
p1979
I0
tp1980
F-39.263776147292155
s(S'1125'
p1981
I0
tp1982
F-6.474763070463858
s(S'927'
p1983
I1
tp1984
F57.68747244863211
s.