(dp0
(S'1317'
p1
I0
tp2
F10.188009377148417
s(S'020'
p3
I0
tp4
F-27.332715895954994
s(S'2430'
p5
I2
tp6
F-160.68989358062123
s(S'2826'
p7
I2
tp8
F26.854906355883323
s(S'1423'
p9
I0
tp10
F-32.145746368440655
s(S'824'
p11
I0
tp12
F55.037916803052006
s(S'1628'
p13
I1
tp14
F-24.320268929658734
s(S'2331'
p15
I1
tp16
F-3.734983178081565
s(S'1819'
p17
I0
tp18
F-51.05195115262653
s(S'320'
p19
I0
tp20
F100.83245221520893
s(S'823'
p21
I1
tp22
F56.0045259474773
s(S'1623'
p23
I0
tp24
F-30.108553408542647
s(S'2725'
p25
I0
tp26
F21.35948195449786
s(S'2526'
p27
I0
tp28
F10.873832314256916
s(S'3024'
p29
I2
tp30
F-18.24897915005573
s(S'1419'
p31
I1
tp32
F41.63806520929517
s(S'1524'
p33
I2
tp34
F4.585462575337804
s(S'2828'
p35
I0
tp36
I-200
s(S'1919'
p37
I1
tp38
I2
s(S'2228'
p39
I2
tp40
F-36.83930587332969
s(S'029'
p41
I0
tp42
I-200
s(S'629'
p43
I0
tp44
F52.9696554553975
s(S'2428'
p45
I2
tp46
F-71.39513232353588
s(S'2121'
p47
I1
tp48
F-67.19225376226511
s(S'1428'
p49
I0
tp50
F45.154268216960254
s(S'1522'
p51
I2
tp52
F33.41882207087538
s(S'1431'
p53
I0
tp54
F-16.344577842139945
s(S'2024'
p55
I0
tp56
F-39.176775149801756
s(S'1325'
p57
I1
tp58
F-11.973302600329134
s(S'1519'
p59
I2
tp60
I-199
s(S'2318'
p61
I1
tp62
F-105.76183698358685
s(S'2421'
p63
I0
tp64
I-200
s(S'928'
p65
I1
tp66
F54.013624872707986
s(S'1928'
p67
I2
tp68
F-18.784082242158618
s(S'1829'
p69
I2
tp70
F-33.01899436033275
s(S'1223'
p71
I2
tp72
F-5.02914378698113
s(S'219'
p73
I1
tp74
F109.32366683917787
s(S'2132'
p75
I1
tp76
I-198
s(S'624'
p77
I0
tp78
F56.577656357080244
s(S'1422'
p79
I2
tp80
F-34.761952728338706
s(S'1619'
p81
I1
tp82
F5.2701265429477235
s(S'1223'
p83
I1
tp84
F50.74181305577931
s(S'2332'
p85
I1
tp86
F-36.162970575656736
s(S'1419'
p87
I2
tp88
F-34.57600000000001
s(S'731'
p89
I0
tp90
F56.79716657379235
s(S'1529'
p91
I2
tp92
F-11.673389572283432
s(S'1924'
p93
I2
tp94
F-12.339013542592884
s(S'2521'
p95
I2
tp96
F-29.50403379582339
s(S'1923'
p97
I1
tp98
F-38.40146253347179
s(S'220'
p99
I0
tp100
F97.62245324013963
s(S'1630'
p101
I1
tp102
F18.682849919598702
s(S'131'
p103
I0
tp104
F34.95506002942084
s(S'2631'
p105
I1
tp106
F6.507258638551157
s(S'2920'
p107
I1
tp108
F-30.779035081657554
s(S'1723'
p109
I1
tp110
F-29.919994831456496
s(S'1321'
p111
I0
tp112
F-43.22835267056434
s(S'2228'
p113
I1
tp114
F-16.405433811323913
s(S'1525'
p115
I1
tp116
F-22.58671314688012
s(S'924'
p117
I2
tp118
F-7.793866893115833
s(S'1725'
p119
I1
tp120
F-0.6226948685435532
s(S'1523'
p121
I0
tp122
F30.111709188721616
s(S'2927'
p123
I0
tp124
F14.707291589783408
s(S'1828'
p125
I0
tp126
F-30.290266623020734
s(S'2123'
p127
I2
tp128
F14.523105163397503
s(S'1319'
p129
I2
tp130
F-26.09901781780053
s(S'1024'
p131
I1
tp132
F57.9700562848583
s(S'1719'
p133
I2
tp134
I-199
s(S'1226'
p135
I2
tp136
F20.7580421803941
s(S'1825'
p137
I1
tp138
F-27.692592902194377
s(S'3031'
p139
I2
tp140
F-43.68156355305151
s(S'2126'
p141
I1
tp142
F-33.11930615711387
s(S'2226'
p143
I0
tp144
F-20.447328753157304
s(S'2820'
p145
I2
tp146
F8.96037122069738
s(S'1625'
p147
I2
tp148
F-21.37893288248642
s(S'420'
p149
I1
tp150
F93.7962710038686
s(S'1328'
p151
I0
tp152
F47.317315926465334
s(S'2127'
p153
I1
tp154
F22.62251944038285
s(S'921'
p155
I1
tp156
F57.83789453138459
s(S'2524'
p157
I2
tp158
F-34.91987095922432
s(S'2421'
p159
I1
tp160
F-46.597352067652004
s(S'1821'
p161
I0
tp162
F-25.328953313335923
s(S'2128'
p163
I2
tp164
F-38.956227386879455
s(S'1620'
p165
I1
tp166
F-19.453079332933566
s(S'1924'
p167
I1
tp168
F-57.90403964372262
s(S'2728'
p169
I1
tp170
F-1.233650584802174
s(S'3021'
p171
I1
tp172
F-1.5444985245287857
s(S'1730'
p173
I0
tp174
F-12.317323939811516
s(S'2426'
p175
I0
tp176
F2.7668380814044693
s(S'2418'
p177
I2
tp178
F-36.632675324166996
s(S'1326'
p179
I2
tp180
F19.82071563695053
s(S'525'
p181
I2
tp182
F43.626882838407944
s(S'229'
p183
I2
tp184
F56.00534795137922
s(S'1722'
p185
I1
tp186
F30.93371201976825
s(S'1124'
p187
I0
tp188
F-7.692793987234741
s(S'2122'
p189
I0
tp190
F-68.51891990655872
s(S'1327'
p191
I2
tp192
F35.750881740103964
s(S'2119'
p193
I1
tp194
I-199
s(S'2429'
p195
I1
tp196
F-23.285896009025336
s(S'1718'
p197
I0
tp198
F3.469695067435852
s(S'1225'
p199
I0
tp200
F-25.557939950476367
s(S'2028'
p201
I1
tp202
F-6.2210277647021925
s(S'3032'
p203
I0
tp204
F-38.84
s(S'2030'
p205
I1
tp206
F-40.042683935030084
s(S'1420'
p207
I0
tp208
F-5.693498254646937
s(S'1122'
p209
I2
tp210
F-0.19447045157034815
s(S'2830'
p211
I0
tp212
F-39.996536916641915
s(S'1022'
p213
I2
tp214
F48.14102257730185
s(S'2120'
p215
I2
tp216
F-17.215554971741824
s(S'2131'
p217
I0
tp218
F-38.901302400000006
s(S'2130'
p219
I2
tp220
F-81.22176627968605
s(S'423'
p221
I1
tp222
F57.82670756566516
s(S'1931'
p223
I2
tp224
F-37.984999424
s(S'1730'
p225
I2
tp226
F-35.19641397341646
s(S'1427'
p227
I1
tp228
F5.136663060571873
s(S'1423'
p229
I2
tp230
F-26.33626884321618
s(S'1920'
p231
I2
tp232
F-80.86647609815029
s(S'1320'
p233
I0
tp234
F-43.690202720716
s(S'426'
p235
I2
tp236
F44.45728553616868
s(S'732'
p237
I1
tp238
I7
s(S'1627'
p239
I1
tp240
F15.94615378631135
s(S'126'
p241
I0
tp242
F54.22409662678046
s(S'2329'
p243
I2
tp244
F-83.82066430143504
s(S'2727'
p245
I1
tp246
F-30.972920376746444
s(S'521'
p247
I0
tp248
F70.57880504742029
s(S'1726'
p249
I2
tp250
F8.090972183273562
s(S'532'
p251
I0
tp252
F8.02524216426582
s(S'1120'
p253
I1
tp254
F50.65379841787206
s(S'922'
p255
I0
tp256
F-12.148655784568163
s(S'620'
p257
I1
tp258
F-12.927475580997207
s(S'1521'
p259
I2
tp260
F-71.28367319019497
s(S'1430'
p261
I0
tp262
F-23.677131691804494
s(S'830'
p263
I1
tp264
F59.23961763541765
s(S'025'
p265
I1
tp266
F-21.218145132494595
s(S'1229'
p267
I1
tp268
F-3.7379660625999307
s(S'2523'
p269
I2
tp270
F38.61721801972912
s(S'228'
p271
I0
tp272
F54.18355655468914
s(S'932'
p273
I1
tp274
I7
s(S'2519'
p275
I1
tp276
I-199
s(S'2718'
p277
I0
tp278
I-200
s(S'1720'
p279
I2
tp280
F-10.00698975112885
s(S'2730'
p281
I1
tp282
F-61.483170536948926
s(S'2719'
p283
I2
tp284
F-24.61247341583939
s(S'2327'
p285
I0
tp286
I0
s(S'1522'
p287
I1
tp288
F-45.637492827901895
s(S'2819'
p289
I1
tp290
F5.539631415172394
s(S'2026'
p291
I0
tp292
F-20.359761774083935
s(S'1530'
p293
I1
tp294
F30.05749824331583
s(S'2225'
p295
I1
tp296
F10.345548733570352
s(S'1930'
p297
I0
tp298
F-53.27561076674624
s(S'2719'
p299
I1
tp300
F13.020969855899585
s(S'2027'
p301
I1
tp302
F-29.539641735247606
s(S'1623'
p303
I2
tp304
F-37.6358528804608
s(S'122'
p305
I1
tp306
F53.904207453106444
s(S'1827'
p307
I2
tp308
F-31.99104558546871
s(S'2629'
p309
I0
tp310
F-30.29344827238715
s(S'2526'
p311
I2
tp312
F28.679585204826868
s(S'2018'
p313
I0
tp314
F-47.06093434782094
s(S'2828'
p315
I2
tp316
F9.677326227919119
s(S'428'
p317
I1
tp318
F55.41747326039675
s(S'127'
p319
I2
tp320
F51.608884729155406
s(S'1822'
p321
I1
tp322
F21.783153379815964
s(S'2328'
p323
I0
tp324
F-66.4991613322856
s(S'029'
p325
I2
tp326
F58.16791459784759
s(S'1130'
p327
I1
tp328
F30.816017824679818
s(S'2532'
p329
I0
tp330
F3.9361246559651653
s(S'1522'
p331
I0
tp332
F-44.023252583274584
s(S'2924'
p333
I0
tp334
I-199
s(S'1829'
p335
I0
tp336
F-25.403448309284457
s(S'2323'
p337
I1
tp338
F4.541736007800921
s(S'317'
p339
I1
tp340
F21.906313274493904
s(S'2720'
p341
I1
tp342
F-1.2562870065220668
s(S'2231'
p343
I1
tp344
F-23.339592370660444
s(S'1518'
p345
I1
tp346
F70.88446625626871
s(S'3029'
p347
I1
tp348
F-32.213324799423006
s(S'1831'
p349
I1
tp350
F3.058727995587649
s(S'1721'
p351
I0
tp352
F-42.85797413788515
s(S'1127'
p353
I1
tp354
F47.6210653631163
s(S'929'
p355
I2
tp356
F49.84550874425986
s(S'2419'
p357
I1
tp358
F-1.2581281133473592
s(S'2832'
p359
I2
tp360
F2.1743136767999998
s(S'1929'
p361
I1
tp362
F-14.52071831547247
s(S'1020'
p363
I0
tp364
F-0.18229209697242688
s(S'1629'
p365
I0
tp366
F-10.284824266542405
s(S'2423'
p367
I2
tp368
F33.67753589015012
s(S'1222'
p369
I1
tp370
F39.970402271362744
s(S'2622'
p371
I1
tp372
F24.869955136623023
s(S'424'
p373
I2
tp374
F56.5893913695796
s(S'826'
p375
I1
tp376
F45.11029751298305
s(S'2222'
p377
I1
tp378
F-34.29834754766371
s(S'3027'
p379
I0
tp380
F30.991077170307136
s(S'2020'
p381
I1
tp382
F-96.56956640343878
s(S'1529'
p383
I0
tp384
F-25.631657436724048
s(S'718'
p385
I2
tp386
F238.5294677247894
s(S'1219'
p387
I1
tp388
F77.4054183335678
s(S'1220'
p389
I2
tp390
F-32.084322362720656
s(S'721'
p391
I1
tp392
F-17.224939325040268
s(S'2520'
p393
I1
tp394
F-15.01849074558957
s(S'2425'
p395
I0
tp396
F-23.870079947672956
s(S'817'
p397
I1
tp398
F25.347729080843376
s(S'1631'
p399
I2
tp400
F3.280491766993144
s(S'1321'
p401
I2
tp402
F-61.342093624191314
s(S'2630'
p403
I2
tp404
F-80.93319347904921
s(S'2419'
p405
I0
tp406
I-200
s(S'1029'
p407
I0
tp408
F48.83764095192633
s(S'2724'
p409
I0
tp410
F-34.66361357718082
s(S'632'
p411
I1
tp412
F8.08
s(S'1123'
p413
I0
tp414
F-14.92849334961939
s(S'2123'
p415
I0
tp416
I-199
s(S'2330'
p417
I0
tp418
F-56.99267025206293
s(S'1319'
p419
I0
tp420
F9.14105207481514
s(S'2321'
p421
I2
tp422
F-42.24346759054038
s(S'026'
p423
I0
tp424
F-19.921888557848643
s(S'1719'
p425
I0
tp426
I-200
s(S'622'
p427
I0
tp428
F52.03934328938429
s(S'3031'
p429
I0
tp430
F4.876720106840308
s(S'1730'
p431
I1
tp432
F15.37028392111056
s(S'1421'
p433
I0
tp434
F-35.60423817494668
s(S'2226'
p435
I2
tp436
F7.206318323240939
s(S'030'
p437
I1
tp438
F-23.56517443676785
s(S'2324'
p439
I1
tp440
F-49.10341434360409
s(S'1221'
p441
I1
tp442
F-14.942221762245769
s(S'2026'
p443
I2
tp444
I-199
s(S'2426'
p445
I2
tp446
F24.895667482142205
s(S'2130'
p447
I0
tp448
F-73.99474261125195
s(S'1932'
p449
I2
tp450
F1.7373316204772333
s(S'2821'
p451
I1
tp452
F-11.242668964956978
s(S'2930'
p453
I1
tp454
F-53.08867156470847
s(S'1728'
p455
I2
tp456
F-12.63147402292112
s(S'017'
p457
I0
tp458
F47.332942620805355
s(S'1624'
p459
I2
tp460
F16.08653675026286
s(S'2620'
p461
I2
tp462
I-198
s(S'725'
p463
I0
tp464
F41.75869621909588
s(S'2524'
p465
I0
tp466
I-199
s(S'2923'
p467
I2
tp468
F50.667589969155664
s(S'032'
p469
I2
tp470
F-66.20584155835289
s(S'1821'
p471
I2
tp472
F-47.78591450801377
s(S'2128'
p473
I0
tp474
F-19.879851531614438
s(S'2022'
p475
I2
tp476
F18.32013294993166
s(S'2625'
p477
I1
tp478
F16.04100178146963
s(S'2018'
p479
I2
tp480
F-11.375400949264913
s(S'2523'
p481
I1
tp482
F-29.735411593739798
s(S'1925'
p483
I2
tp484
F-27.77410651414021
s(S'2418'
p485
I0
tp486
I-200
s(S'2428'
p487
I0
tp488
F-81.42053862753164
s(S'019'
p489
I1
tp490
F-18.89234069226257
s(S'2518'
p491
I2
tp492
F-39.09153996927156
s(S'1327'
p493
I1
tp494
F-16.87285960936013
s(S'419'
p495
I0
tp496
F138.29756164953739
s(S'1826'
p497
I0
tp498
F-30.008842157982727
s(S'926'
p499
I1
tp500
F40.69874926830761
s(S'2531'
p501
I1
tp502
F7.443315237856524
s(S'1723'
p503
I2
tp504
F19.757839288085503
s(S'1318'
p505
I2
tp506
F35.51829606028682
s(S'2320'
p507
I0
tp508
F-66.43817315022294
s(S'1020'
p509
I2
tp510
F-2.720979923331024
s(S'1718'
p511
I2
tp512
F-4.94824059880175
s(S'417'
p513
I2
tp514
F26.654587918049707
s(S'2430'
p515
I1
tp516
I-199
s(S'2029'
p517
I2
tp518
F-58.32270346586491
s(S'825'
p519
I2
tp520
F24.9149350152949
s(S'2830'
p521
I2
tp522
F-33.94010391290469
s(S'2830'
p523
I1
tp524
F-16.580780543650604
s(S'1832'
p525
I2
tp526
F2.2212408735058653
s(S'1330'
p527
I0
tp528
F26.392786272462136
s(S'2330'
p529
I1
tp530
F-25.520737791455247
s(S'1931'
p531
I0
tp532
F-37.313556091722326
s(S'918'
p533
I1
tp534
F218.24211729216051
s(S'522'
p535
I2
tp536
F48.73473295806857
s(S'330'
p537
I2
tp538
F57.28940089722266
s(S'2932'
p539
I2
tp540
I2
s(S'1824'
p541
I2
tp542
F-26.90217225944669
s(S'722'
p543
I2
tp544
F49.37891052207912
s(S'2221'
p545
I0
tp546
F-101.49842992242125
s(S'1921'
p547
I1
tp548
F-62.66662960873142
s(S'222'
p549
I0
tp550
F56.43687684590848
s(S'2721'
p551
I0
tp552
F-35.32459865055038
s(S'1418'
p553
I1
tp554
F108.68869616730352
s(S'3024'
p555
I1
tp556
I2
s(S'2023'
p557
I0
tp558
F-36.52487909041237
s(S'2329'
p559
I0
tp560
F-104.26238256573657
s(S'1323'
p561
I0
tp562
F50.25830901255536
s(S'1228'
p563
I1
tp564
F53.816369243044846
s(S'1626'
p565
I2
tp566
F2.568590907837078
s(S'1926'
p567
I0
tp568
F-23.989571597607707
s(S'1724'
p569
I0
tp570
F-30.277713994413805
s(S'1429'
p571
I2
tp572
F-0.017347018208861975
s(S'2632'
p573
I2
tp574
F-35.743198390968914
s(S'1121'
p575
I2
tp576
F-25.124725015517093
s(S'1323'
p577
I1
tp578
F-2.4943059738817013
s(S'024'
p579
I2
tp580
F55.56147132104669
s(S'2318'
p581
I2
tp582
I-199
s(S'1720'
p583
I0
tp584
F-70.2711757703249
s(S'1217'
p585
I0
tp586
F10.499152877502498
s(S'2628'
p587
I0
tp588
F-35.93705627072822
s(S'129'
p589
I1
tp590
F57.66342682425595
s(S'2822'
p591
I2
tp592
F26.78604972141021
s(S'2818'
p593
I2
tp594
F12.478849881680034
s(S'2124'
p595
I0
tp596
F7.864777409723253
s(S'1618'
p597
I1
tp598
F-12.2743775501988
s(S'1422'
p599
I1
tp600
F40.20036817040299
s(S'1930'
p601
I2
tp602
I-199
s(S'523'
p603
I0
tp604
F56.903518093741255
s(S'2619'
p605
I0
tp606
F-39.02
s(S'1528'
p607
I0
tp608
F-25.747164009331776
s(S'1624'
p609
I0
tp610
F-31.819560215321488
s(S'822'
p611
I0
tp612
F-8.691069291817907
s(S'1622'
p613
I1
tp614
F39.288099571135
s(S'1922'
p615
I1
tp616
F-65.66671875666844
s(S'2919'
p617
I1
tp618
F16.472952430686284
s(S'1928'
p619
I0
tp620
F-55.80752556198977
s(S'2424'
p621
I0
tp622
F-39.64
s(S'2921'
p623
I1
tp624
F-0.19273006519207625
s(S'2829'
p625
I1
tp626
I-199
s(S'2328'
p627
I2
tp628
F-92.42635506214972
s(S'1625'
p629
I0
tp630
F9.040751237485615
s(S'1927'
p631
I2
tp632
F16.334561654349145
s(S'2218'
p633
I0
tp634
F-32.04105988600394
s(S'028'
p635
I1
tp636
F-19.425000130174343
s(S'628'
p637
I1
tp638
F55.978536831525645
s(S'1724'
p639
I1
tp640
F12.148097442844042
s(S'530'
p641
I1
tp642
F59.17410652019606
s(S'1122'
p643
I0
tp644
F-18.59347734271272
s(S'2120'
p645
I0
tp646
F-99.29395867931807
s(S'2322'
p647
I2
tp648
F23.84658891195649
s(S'027'
p649
I0
tp650
F53.35771059487521
s(S'2319'
p651
I0
tp652
F-71.18
s(S'1721'
p653
I2
tp654
F-12.669809775015603
s(S'3030'
p655
I0
tp656
F-1.0822804111789375
s(S'2230'
p657
I2
tp658
I-199
s(S'2032'
p659
I1
tp660
F6.552577331395533
s(S'2629'
p661
I2
tp662
F-10.275656659287929
s(S'2732'
p663
I0
tp664
I0
s(S'2832'
p665
I0
tp666
I-199
s(S'025'
p667
I2
tp668
F58.9377145630502
s(S'1425'
p669
I1
tp670
F-29.233009302606586
s(S'2623'
p671
I2
tp672
F41.07292831647376
s(S'724'
p673
I0
tp674
F56.13816522807991
s(S'2525'
p675
I0
tp676
F-26.540541154288327
s(S'2223'
p677
I2
tp678
F20.299867826977742
s(S'332'
p679
I2
tp680
F6.2
s(S'925'
p681
I1
tp682
F26.890637625989402
s(S'2420'
p683
I1
tp684
F-18.38182625066316
s(S'1826'
p685
I2
tp686
F-26.680149092659917
s(S'2129'
p687
I0
tp688
F-90.33610603478613
s(S'2021'
p689
I2
tp690
F-63.590295953672126
s(S'1621'
p691
I1
tp692
F-37.01544805180851
s(S'2729'
p693
I1
tp694
F-18.8340993359423
s(S'2721'
p695
I2
tp696
F-21.16141798753855
s(S'1222'
p697
I2
tp698
F-26.78637949443156
s(S'1231'
p699
I0
tp700
F-8.538481527884628
s(S'1631'
p701
I0
tp702
F-7.9622561384130535
s(S'130'
p703
I1
tp704
F58.3919220587042
s(S'2630'
p705
I0
tp706
I-199
s(S'1432'
p707
I0
tp708
F4.8
s(S'2229'
p709
I0
tp710
F-127.60870709337448
s(S'3022'
p711
I1
tp712
F-2.8700856144439584
s(S'1123'
p713
I2
tp714
F-5.871252156666252
s(S'2926'
p715
I1
tp716
F32.13611882119681
s(S'2118'
p717
I1
tp718
F-15.296835024547603
s(S'2321'
p719
I0
tp720
F-51.68629718051599
s(S'026'
p721
I2
tp722
F56.07677155032734
s(S'2727'
p723
I0
tp724
F-31.313547261420325
s(S'230'
p725
I1
tp726
F58.9888725413261
s(S'2425'
p727
I2
tp728
F-18.00240062794284
s(S'2031'
p729
I1
tp730
F-32.301316444589986
s(S'1421'
p731
I2
tp732
F-23.308727888715296
s(S'2528'
p733
I2
tp734
F-8.327773668110211
s(S'728'
p735
I1
tp736
F55.15007922601806
s(S'1126'
p737
I2
tp738
F-14.619446965892468
s(S'2529'
p739
I1
tp740
F-79.63172364518658
s(S'2227'
p741
I1
tp742
F-30.29219228605306
s(S'1331'
p743
I0
tp744
F28.5517883081291
s(S'2124'
p745
I2
tp746
F8.282322853258092
s(S'1932'
p747
I0
tp748
F-37.24255474331404
s(S'1731'
p749
I0
tp750
F-39.800000000000004
s(S'322'
p751
I2
tp752
F54.262007859084285
s(S'917'
p753
I2
tp754
F10.158064287214444
s(S'120'
p755
I1
tp756
F106.21098363895341
s(S'2620'
p757
I0
tp758
F-14.575577170305511
s(S'1427'
p759
I2
tp760
F-25.904015331512113
s(S'820'
p761
I2
tp762
F37.75164895474209
s(S'2220'
p763
I0
tp764
F-41.660422095314026
s(S'2618'
p765
I0
tp766
F-37.45305912290556
s(S'2022'
p767
I0
tp768
I-199
s(S'2422'
p769
I2
tp770
F-32.233817927792614
s(S'1820'
p771
I1
tp772
F-78.35851874728698
s(S'324'
p773
I2
tp774
F57.32237905136096
s(S'2425'
p775
I1
tp776
F6.063585737881903
s(S'1925'
p777
I0
tp778
F-33.71190189974607
s(S'717'
p779
I0
tp780
I0
s(S'919'
p781
I0
tp782
F106.51830267144592
s(S'1824'
p783
I1
tp784
F15.449766945109012
s(S'118'
p785
I2
tp786
F159.9382509316048
s(S'1524'
p787
I1
tp788
F27.593080397937253
s(S'2722'
p789
I1
tp790
F-30.345029098351723
s(S'1723'
p791
I0
tp792
F10.936706623022268
s(S'517'
p793
I1
tp794
F27.980592392627983
s(S'2929'
p795
I1
tp796
F-35.90071085215589
s(S'2419'
p797
I2
tp798
F16.20185906417079
s(S'2320'
p799
I2
tp800
I-199
s(S'2118'
p801
I2
tp802
F-79.39290960126448
s(S'1026'
p803
I0
tp804
F28.313748342149577
s(S'020'
p805
I1
tp806
F57.68259277813242
s(S'1224'
p807
I1
tp808
F-5.544155292242756
s(S'2029'
p809
I0
tp810
F-89.4121606264529
s(S'1324'
p811
I2
tp812
F24.294141640333777
s(S'432'
p813
I1
tp814
I6
s(S'2224'
p815
I1
tp816
F-26.876826020948567
s(S'2521'
p817
I0
tp818
F-22.452771035515944
s(S'2026'
p819
I1
tp820
F12.565934783033722
s(S'2331'
p821
I2
tp822
F-36.7206761567244
s(S'1819'
p823
I1
tp824
F-53.01168158520218
s(S'1824'
p825
I0
tp826
F-0.2894923743665414
s(S'1426'
p827
I0
tp828
F-21.554144862786565
s(S'823'
p829
I0
tp830
F-22.422548142883517
s(S'2221'
p831
I2
tp832
I-199
s(S'2526'
p833
I1
tp834
F-29.786103561158
s(S'2023'
p835
I2
tp836
F8.181900736421817
s(S'2024'
p837
I2
tp838
F-33.11601344790567
s(S'429'
p839
I1
tp840
F56.40719885739843
s(S'1823'
p841
I1
tp842
F20.332935682357178
s(S'1322'
p843
I0
tp844
F-32.57352303494536
s(S'1431'
p845
I2
tp846
F-22.25059488925728
s(S'3018'
p847
I2
tp848
F32.550012199329785
s(S'2219'
p849
I0
tp850
F-28.120649628404877
s(S'2619'
p851
I1
tp852
F-36.25422355437489
s(S'630'
p853
I1
tp854
F58.510888660234286
s(S'2925'
p855
I2
tp856
F46.06688299099794
s(S'1121'
p857
I0
tp858
F-22.14343838532433
s(S'923'
p859
I1
tp860
F58.06465044054812
s(S'2829'
p861
I0
tp862
F-33.768744129685274
s(S'1431'
p863
I1
tp864
F20.499431237270294
s(S'831'
p865
I0
tp866
I0
s(S'024'
p867
I0
tp868
F7.510896256778395
s(S'2518'
p869
I1
tp870
F-29.523853759324332
s(S'2318'
p871
I0
tp872
F-10.25496570038569
s(S'529'
p873
I0
tp874
F54.50201926106692
s(S'931'
p875
I2
tp876
F51.542885583498176
s(S'1918'
p877
I2
tp878
F-7.332148750975395
s(S'3029'
p879
I2
tp880
F29.359370936901087
s(S'032'
p881
I1
tp882
F-22.302948318943947
s(S'1021'
p883
I2
tp884
F-5.773236662234545
s(S'627'
p885
I1
tp886
F54.21880701516974
s(S'526'
p887
I1
tp888
F55.02671573651552
s(S'2132'
p889
I0
tp890
F4.61427919653882
s(S'2827'
p891
I1
tp892
F11.877767749052566
s(S'619'
p893
I0
tp894
F104.87480564509866
s(S'727'
p895
I0
tp896
F49.05237292572421
s(S'1332'
p897
I1
tp898
F-30.732
s(S'425'
p899
I2
tp900
F42.04080191887845
s(S'1732'
p901
I1
tp902
F5.238101888
s(S'720'
p903
I1
tp904
F73.50053685020806
s(S'1520'
p905
I0
tp906
F-99.22856240404829
s(S'2521'
p907
I1
tp908
F-2.595963713069727
s(S'1230'
p909
I0
tp910
F-0.4583258167302091
s(S'2424'
p911
I2
tp912
F-35.71908965787288
s(S'1630'
p913
I0
tp914
F-22.056879883676807
s(S'1526'
p915
I2
tp916
F-21.744487324616294
s(S'3019'
p917
I0
tp918
I-199
s(S'2218'
p919
I2
tp920
F-37.84
s(S'1321'
p921
I1
tp922
F36.366832368559095
s(S'2228'
p923
I0
tp924
F-64.69163010566227
s(S'418'
p925
I1
tp926
F179.24785502036013
s(S'620'
p927
I2
tp928
F67.88691768059994
s(S'1828'
p929
I1
tp930
F-4.134323373095307
s(S'2322'
p931
I0
tp932
F-34.809656354522254
s(S'1227'
p933
I2
tp934
F-7.177269997750656
s(S'2319'
p935
I2
tp936
F-72.94705120800202
s(S'930'
p937
I0
tp938
F53.30181270924364
s(S'3030'
p939
I2
tp940
F-48.86273123534211
s(S'2230'
p941
I0
tp942
I-200
s(S'2432'
p943
I1
tp944
I2
s(S'328'
p945
I1
tp946
F56.59584313322688
s(S'920'
p947
I0
tp948
I-195
s(S'2325'
p949
I1
tp950
F14.161991613303085
s(S'319'
p951
I1
tp952
F128.46172247090072
s(S'030'
p953
I2
tp954
F58.882714687902144
s(S'1221'
p955
I2
tp956
F-27.398113530244935
s(S'1526'
p957
I1
tp958
F18.19848582206665
s(S'2623'
p959
I0
tp960
F13.243741324718911
s(S'2930'
p961
I2
tp962
F14.544465657697682
s(S'1424'
p963
I2
tp964
F-22.80677084884012
s(S'2525'
p965
I2
tp966
F12.692629443758793
s(S'2223'
p967
I0
tp968
F-41.818957684337185
s(S'224'
p969
I0
tp970
F56.450802010096645
s(S'2129'
p971
I2
tp972
F-117.00680688754218
s(S'2021'
p973
I0
tp974
F-74.31986606889575
s(S'2421'
p975
I2
tp976
F9.41722202243911
s(S'2624'
p977
I1
tp978
F-38.23790401390871
s(S'1025'
p979
I2
tp980
F18.8648641872632
s(S'1618'
p981
I2
tp982
F6.8112266128066885
s(S'3021'
p983
I0
tp984
F-32.824222334663034
s(S'2229'
p985
I2
tp986
F-48.57984519746363
s(S'1227'
p987
I1
tp988
F48.31127244764406
s(S'1219'
p989
I0
tp990
F24.57621887859821
s(S'2530'
p991
I1
tp992
F-8.55467681786911
s(S'1722'
p993
I0
tp994
F-10.727029861864558
s(S'218'
p995
I0
tp996
F212.88743415643003
s(S'1822'
p997
I0
tp998
F-35.02675504541924
s(S'2122'
p999
I1
tp1000
F-13.613649596632046
s(S'2119'
p1001
I2
tp1002
I-199
s(S'1027'
p1003
I0
tp1004
F46.08888238250142
s(S'1118'
p1005
I0
tp1006
F152.3246728594076
s(S'1718'
p1007
I1
tp1008
F-38.222234567616
s(S'231'
p1009
I2
tp1010
F29.592921844406945
s(S'2028'
p1011
I0
tp1012
F-25.737259444947995
s(S'1420'
p1013
I1
tp1014
I-193
s(S'1629'
p1015
I2
tp1016
F-3.3882255489987925
s(S'031'
p1017
I0
tp1018
F-58.89500515841945
s(S'1220'
p1019
I0
tp1020
F-37.71046152538845
s(S'1731'
p1021
I2
tp1022
F-27.38736751661955
s(S'1019'
p1023
I0
tp1024
F96.64115437686834
s(S'2131'
p1025
I1
tp1026
F6.094153723791951
s(S'1825'
p1027
I0
tp1028
F-34.11077543975805
s(S'1427'
p1029
I0
tp1030
F41.91708003429682
s(S'820'
p1031
I0
tp1032
I5
s(S'1920'
p1033
I1
tp1034
F-63.975919317001
s(S'3025'
p1035
I1
tp1036
F13.725802807992713
s(S'2422'
p1037
I0
tp1038
F21.13351826393159
s(S'1322'
p1039
I2
tp1040
F-33.65271724111728
s(S'1531'
p1041
I2
tp1042
F8.619243535352794
s(S'2522'
p1043
I0
tp1044
F21.650334206223327
s(S'2918'
p1045
I2
tp1046
F-23.002437117996685
s(S'3020'
p1047
I2
tp1048
F14.56720645631379
s(S'1726'
p1049
I1
tp1050
F-29.52106854779168
s(S'1520'
p1051
I2
tp1052
F-109.70888149001247
s(S'2922'
p1053
I2
tp1054
F47.32871397252279
s(S'1120'
p1055
I0
tp1056
F-19.760413753590505
s(S'2632'
p1057
I1
tp1058
F2.5051613305196576
s(S'025'
p1059
I0
tp1060
F56.91834113419346
s(S'1229'
p1061
I0
tp1062
F45.22207430071662
s(S'528'
p1063
I0
tp1064
F53.025612368851625
s(S'2125'
p1065
I1
tp1066
F12.922826262260749
s(S'2429'
p1067
I0
tp1068
F-109.08220881427818
s(S'117'
p1069
I1
tp1070
I2
s(S'2730'
p1071
I0
tp1072
F-8.769685683631714
s(S'2928'
p1073
I2
tp1074
F-29.2697710530493
s(S'617'
p1075
I1
tp1076
F35.69029387647798
s(S'2019'
p1077
I0
tp1078
F-48.81066239738209
s(S'920'
p1079
I2
tp1080
F22.362063744238693
s(S'1423'
p1081
I1
tp1082
F53.16861857575883
s(S'2120'
p1083
I1
tp1084
I-198
s(S'1628'
p1085
I0
tp1086
F-45.60247787825831
s(S'618'
p1087
I0
tp1088
F202.56611189904572
s(S'726'
p1089
I0
tp1090
F43.40524515339604
s(S'1124'
p1091
I2
tp1092
F-31.046751868138905
s(S'422'
p1093
I2
tp1094
F55.53522821659372
s(S'1930'
p1095
I1
tp1096
F-1.2440589215020772
s(S'1419'
p1097
I0
tp1098
F-41.56566913191892
s(S'1426'
p1099
I2
tp1100
F-24.462733260015483
s(S'1623'
p1101
I1
tp1102
F32.78937894111936
s(S'1517'
p1103
I1
tp1104
I2
s(S'1922'
p1105
I2
tp1106
F20.5909009537806
s(S'1219'
p1107
I2
tp1108
I-194
s(S'2828'
p1109
I1
tp1110
F-16.727114237805516
s(S'2122'
p1111
I2
tp1112
F21.49568424767637
s(S'1919'
p1113
I2
tp1114
F-37.891999999999996
s(S'1525'
p1115
I2
tp1116
F13.196443156008566
s(S'2328'
p1117
I1
tp1118
F-20.037916741456073
s(S'029'
p1119
I1
tp1120
F42.717647803242265
s(S'2121'
p1121
I2
tp1122
F-33.86015138705869
s(S'1724'
p1123
I2
tp1124
F-35.497039700845974
s(S'2429'
p1125
I2
tp1126
I-199
s(S'2924'
p1127
I1
tp1128
F4.49343936420601
s(S'2422'
p1129
I1
tp1130
F-33.227530826395075
s(S'2323'
p1131
I0
tp1132
F-42.37360122495284
s(S'1325'
p1133
I0
tp1134
F16.175650064202692
s(S'1228'
p1135
I2
tp1136
F-0.26405749793497213
s(S'2231'
p1137
I0
tp1138
F15.816935117694026
s(S'2519'
p1139
I2
tp1140
F-37.984
s(S'3029'
p1141
I0
tp1142
F-39.69444051501159
s(S'1721'
p1143
I1
tp1144
F-49.15341524718704
s(S'1022'
p1145
I1
tp1146
F-3.8870058622848305
s(S'2629'
p1147
I1
tp1148
F-56.22403489792012
s(S'1729'
p1149
I2
tp1150
F-33.3875563120961
s(S'1929'
p1151
I2
tp1152
F-28.493603156265113
s(S'2132'
p1153
I2
tp1154
F-37.537888
s(S'431'
p1155
I1
tp1156
F57.02753852801795
s(S'626'
p1157
I2
tp1158
F38.4478743306635
s(S'1031'
p1159
I0
tp1160
F52.33378681813348
s(S'2622'
p1161
I0
tp1162
F-24.263773546174725
s(S'430'
p1163
I0
tp1164
F57.713975271891954
s(S'2222'
p1165
I0
tp1166
F-38.28168475883137
s(S'225'
p1167
I0
tp1168
F56.360638566572625
s(S'2621'
p1169
I2
tp1170
F-29.67491597400272
s(S'2020'
p1171
I0
tp1172
F-90.09253120272714
s(S'1529'
p1173
I1
tp1174
F37.50611357839581
s(S'123'
p1175
I2
tp1176
F57.13256788666427
s(S'1826'
p1177
I1
tp1178
F10.257786968761165
s(S'1621'
p1179
I2
tp1180
F18.169849310331728
s(S'1923'
p1181
I0
tp1182
F-36.47977437075749
s(S'1230'
p1183
I2
tp1184
F32.70520907074066
s(S'1117'
p1185
I1
tp1186
F29.433936403577846
s(S'2729'
p1187
I2
tp1188
F-34.29966274895188
s(S'2520'
p1189
I2
tp1190
F-40.073419105991796
s(S'3022'
p1191
I0
tp1192
F47.47363290175038
s(S'625'
p1193
I2
tp1194
F30.358163346268565
s(S'1526'
p1195
I0
tp1196
F-31.931473049860806
s(S'3019'
p1197
I2
tp1198
F2.2174584025662583
s(S'1429'
p1199
I1
tp1200
F-12.530981554959723
s(S'828'
p1201
I0
tp1202
F52.83609139595196
s(S'1624'
p1203
I1
tp1204
F10.932384423653081
s(S'2724'
p1205
I1
tp1206
I2
s(S'1725'
p1207
I0
tp1208
F-34.854789637950944
s(S'3026'
p1209
I2
tp1210
F41.27470880253718
s(S'1123'
p1211
I1
tp1212
F55.80348096283628
s(S'2331'
p1213
I0
tp1214
F-34.91448579663856
s(S'026'
p1215
I1
tp1216
F-8.033799085216764
s(S'3028'
p1217
I2
tp1218
F37.1615789653244
s(S'3031'
p1219
I1
tp1220
F-36.884121664126184
s(S'2031'
p1221
I2
tp1222
F-69.75050788869575
s(S'2126'
p1223
I0
tp1224
F-35.966652247480255
s(S'1629'
p1225
I1
tp1226
F-15.886095028422229
s(S'2226'
p1227
I1
tp1228
F-33.11301685979607
s(S'030'
p1229
I0
tp1230
F-19.709139492737417
s(S'1023'
p1231
I1
tp1232
F57.210144726498136
s(S'1221'
p1233
I0
tp1234
F31.76365206367589
s(S'520'
p1235
I0
tp1236
F76.34450822999932
s(S'2024'
p1237
I1
tp1238
F3.4331382751434023
s(S'2518'
p1239
I0
tp1240
F-42.73976509557188
s(S'1832'
p1241
I0
tp1242
I-200
s(S'2821'
p1243
I2
tp1244
F-26.879937707823718
s(S'2930'
p1245
I0
tp1246
F-58.33158493930999
s(S'2727'
p1247
I2
tp1248
F9.40412583104513
s(S'2524'
p1249
I1
tp1250
F10.857028002472026
s(S'2423'
p1251
I0
tp1252
F-30.046829192856016
s(S'427'
p1253
I1
tp1254
F54.16487382834646
s(S'1821'
p1255
I1
tp1256
F-53.5075030183912
s(S'2128'
p1257
I1
tp1258
F-33.998597131896
s(S'327'
p1259
I0
tp1260
F52.78066299491557
s(S'1620'
p1261
I0
tp1262
F-117.8174656314446
s(S'125'
p1263
I1
tp1264
F58.70094217631246
s(S'2728'
p1265
I0
tp1266
F-28.053406354413454
s(S'2523'
p1267
I0
tp1268
F-28.959513821096333
s(S'2426'
p1269
I1
tp1270
F-28.58093118956168
s(S'818'
p1271
I0
tp1272
F146.168963902268
s(S'2131'
p1273
I2
tp1274
F-39.0
s(S'019'
p1275
I2
tp1276
F129.4550020764049
s(S'2723'
p1277
I1
tp1278
F-1.3344188461295015
s(S'1722'
p1279
I2
tp1280
F-47.776782557053785
s(S'1124'
p1281
I1
tp1282
F50.35952928347591
s(S'1818'
p1283
I2
tp1284
F-2.753482822283763
s(S'2119'
p1285
I0
tp1286
F2.5175656824957118
s(S'2320'
p1287
I1
tp1288
F-11.953484833285348
s(S'021'
p1289
I1
tp1290
F36.66187169803355
s(S'2822'
p1291
I1
tp1292
F-3.773114811179853
s(S'1225'
p1293
I1
tp1294
F-24.795865404477304
s(S'524'
p1295
I1
tp1296
F57.3806737181233
s(S'2028'
p1297
I2
tp1298
F-36.89803661574984
s(S'3032'
p1299
I1
tp1300
F6.8660218006208735
s(S'2232'
p1301
I1
tp1302
F15.65325582557162
s(S'2030'
p1303
I0
tp1304
I-200
s(S'2825'
p1305
I1
tp1306
F19.398025653982913
s(S'1729'
p1307
I0
tp1308
F-39.76883401860115
s(S'031'
p1309
I2
tp1310
F-65.73246692060071
s(S'2528'
p1311
I0
tp1312
I-200
s(S'2224'
p1313
I2
tp1314
F2.667794750913392
s(S'217'
p1315
I2
tp1316
F16.45833448495026
s(S'1728'
p1317
I0
tp1318
F-16.14218220793871
s(S'018'
p1319
I0
tp1320
F236.14512346144687
s(S'1818'
p1321
I1
tp1322
F5.528826981387387
s(S'1825'
p1323
I2
tp1324
F-31.30080813398571
s(S'1729'
p1325
I1
tp1326
F-34.2299638982931
s(S'121'
p1327
I0
tp1328
F53.90071903244545
s(S'2621'
p1329
I1
tp1330
F-75.45869138439656
s(S'2527'
p1331
I1
tp1332
F6.802687659089022
s(S'2221'
p1333
I1
tp1334
F-13.65509315402398
s(S'1921'
p1335
I2
tp1336
F-73.31474108070147
s(S'2621'
p1337
I0
tp1338
I-199
s(S'2023'
p1339
I1
tp1340
F-12.553302480235825
s(S'1823'
p1341
I2
tp1342
I-199
s(S'1531'
p1343
I0
tp1344
I0
s(S'2522'
p1345
I2
tp1346
F-37.84
s(S'318'
p1347
I2
tp1348
F183.90125581666564
s(S'2428'
p1349
I1
tp1350
F-70.8462689153028
s(S'1120'
p1351
I2
tp1352
F-14.848707415254996
s(S'1727'
p1353
I2
tp1354
F-34.997883865214504
s(S'1521'
p1355
I1
tp1356
F35.60367732570505
s(S'1430'
p1357
I1
tp1358
F-8.668082039690088
s(S'1324'
p1359
I0
tp1360
F-18.89798200106145
s(S'1424'
p1361
I1
tp1362
F23.51583933327555
s(S'2121'
p1363
I0
tp1364
F-83.45769977092543
s(S'2718'
p1365
I1
tp1366
F-11.237810517156884
s(S'1830'
p1367
I2
tp1368
F-61.45005753454201
s(S'2730'
p1369
I2
tp1370
F-34.26932710289435
s(S'2928'
p1371
I0
tp1372
F0.36000000000000004
s(S'128'
p1373
I0
tp1374
F53.689730681287614
s(S'2327'
p1375
I1
tp1376
F-24.57073775872043
s(S'2819'
p1377
I2
tp1378
F-25.167541516867445
s(S'621'
p1379
I0
tp1380
F67.0712286343108
s(S'023'
p1381
I2
tp1382
F56.30883338914604
s(S'1621'
p1383
I0
tp1384
F-44.20441679740052
s(S'1030'
p1385
I0
tp1386
F50.57474297614018
s(S'1628'
p1387
I2
tp1388
F9.959979388618002
s(S'1618'
p1389
I0
tp1390
F-18.43644289913404
s(S'2225'
p1391
I0
tp1392
I1
s(S'226'
p1393
I0
tp1394
F53.68542839741768
s(S'2823'
p1395
I2
tp1396
F44.832810540472146
s(S'2423'
p1397
I1
tp1398
F5.198159379827479
s(S'2027'
p1399
I0
tp1400
F-39.8524210944
s(S'2626'
p1401
I1
tp1402
F26.22663448791899
s(S'2721'
p1403
I1
tp1404
F-33.02852457953308
s(S'822'
p1405
I1
tp1406
F56.83412938099228
s(S'1622'
p1407
I2
tp1408
F-42.79533249619785
s(S'1922'
p1409
I0
tp1410
F-57.37089332032846
s(S'221'
p1411
I1
tp1412
F55.53804811899471
s(S'2723'
p1413
I2
tp1414
F31.88430129962153
s(S'2020'
p1415
I2
tp1416
F-53.722318387516864
s(S'2528'
p1417
I1
tp1418
I-199
s(S'1519'
p1419
I1
tp1420
F-10.108572098594987
s(S'1525'
p1421
I0
tp1422
F-29.9170089986658
s(S'2921'
p1423
I0
tp1424
F11.691610520874127
s(S'2829'
p1425
I2
tp1426
F-41.08015196064527
s(S'1918'
p1427
I1
tp1428
F3.1228321265157684
s(S'1320'
p1429
I1
tp1430
F-18.364456308911244
s(S'829'
p1431
I0
tp1432
F51.41165132737358
s(S'2218'
p1433
I1
tp1434
F-38.3278848991232
s(S'028'
p1435
I2
tp1436
F55.711106312862725
s(S'1830'
p1437
I1
tp1438
F-0.2018672713572114
s(S'331'
p1439
I1
tp1440
F57.82818899754132
s(S'631'
p1441
I0
tp1442
F56.39208793290296
s(S'1829'
p1443
I1
tp1444
F-36.30438801811501
s(S'2323'
p1445
I2
tp1446
F-36.12948586952249
s(S'1325'
p1447
I2
tp1448
F-23.701751907409637
s(S'2720'
p1449
I0
tp1450
F-37.30794736147136
s(S'2519'
p1451
I0
tp1452
F-50.83631735321782
s(S'2319'
p1453
I1
tp1454
I-198
s(S'1831'
p1455
I0
tp1456
F-33.87595631827007
s(S'1818'
p1457
I0
tp1458
I0
s(S'2127'
p1459
I0
tp1460
F-33.53233041898738
s(S'2832'
p1461
I1
tp1462
F-29.632081413690663
s(S'1929'
p1463
I0
tp1464
F-62.719296299521304
s(S'2325'
p1465
I2
tp1466
F-21.777926683008992
s(S'1222'
p1467
I0
tp1468
F-16.445624707839556
s(S'2019'
p1469
I2
tp1470
F-1.5105995626923745
s(S'527'
p1471
I0
tp1472
F51.64479187519922
s(S'421'
p1473
I0
tp1474
F74.12324220265462
s(S'2622'
p1475
I2
tp1476
F-37.00786718897945
s(S'1619'
p1477
I2
tp1478
F-43.231542207458766
s(S'1425'
p1479
I0
tp1480
F-27.316542165979985
s(S'2222'
p1481
I2
tp1482
F22.657075984482827
s(S'3027'
p1483
I1
tp1484
F-9.376543357501358
s(S'2018'
p1485
I1
tp1486
F-38.13669120000001
s(S'2420'
p1487
I0
tp1488
F-37.71245236612938
s(S'326'
p1489
I0
tp1490
F53.20355566286838
s(S'1928'
p1491
I1
tp1492
F-42.04120439357626
s(S'1923'
p1493
I2
tp1494
F-1.725217634090337
s(S'2624'
p1495
I2
tp1496
F1.261556883884045
s(S'721'
p1497
I0
tp1498
F66.62099999148322
s(S'2729'
p1499
I0
tp1500
F-51.03603064168761
s(S'2520'
p1501
I0
tp1502
F-44.948977936657506
s(S'1231'
p1503
I1
tp1504
F44.56169071048256
s(S'2618'
p1505
I1
tp1506
F-4.88823389534731
s(S'1631'
p1507
I1
tp1508
F-9.621666481741393
s(S'1727'
p1509
I1
tp1510
F10.424976645198901
s(S'2630'
p1511
I1
tp1512
F-6.667117051019699
s(S'832'
p1513
I0
tp1514
I6
s(S'1521'
p1515
I0
tp1516
F-39.979647680758596
s(S'2229'
p1517
I1
tp1518
I-199
s(S'1924'
p1519
I0
tp1520
F-36.73984621159526
s(S'1725'
p1521
I2
tp1522
F-30.91833888177939
s(S'519'
p1523
I2
tp1524
F135.63679188607313
s(S'925'
p1525
I0
tp1526
F-14.581096130103457
s(S'2530'
p1527
I2
tp1528
F-33.4706153716533
s(S'1319'
p1529
I1
tp1530
F-21.589457040951363
s(S'2118'
p1531
I0
tp1532
F-66.52536536110861
s(S'2818'
p1533
I0
tp1534
F-17.208875102488683
s(S'1719'
p1535
I1
tp1536
F-29.554532722401614
s(S'2031'
p1537
I0
tp1538
F-62.33089503025466
s(S'2126'
p1539
I2
tp1540
F-7.887410821252621
s(S'2431'
p1541
I2
tp1542
F14.547584309262529
s(S'329'
p1543
I0
tp1544
F55.26670990314206
s(S'2831'
p1545
I1
tp1546
F6.384944823139687
s(S'2324'
p1547
I0
tp1548
F4.328448076075034
s(S'1218'
p1549
I1
tp1550
F156.78204793875784
s(S'2529'
p1551
I0
tp1552
F-48.27528339271682
s(S'2227'
p1553
I2
tp1554
F18.42460878097171
s(S'2130'
p1555
I1
tp1556
F-37.987560644772955
s(S'1932'
p1557
I1
tp1558
F-35.36302222532268
s(S'2821'
p1559
I0
tp1560
F-20.747360142832008
s(S'2025'
p1561
I2
tp1562
F-21.23975199597348
s(S'821'
p1563
I2
tp1564
F59.79683083344163
s(S'2123'
p1565
I1
tp1566
F-18.247572326317375
s(S'1429'
p1567
I0
tp1568
F40.35451895125131
s(S'3025'
p1569
I2
tp1570
F44.17873556720931
s(S'1620'
p1571
I2
tp1572
I-199
s(S'1820'
p1573
I2
tp1574
F-55.85207055859414
s(S'1532'
p1575
I0
tp1576
F6.26
s(S'1528'
p1577
I2
tp1578
F-13.898024522178337
s(S'1132'
p1579
I2
tp1580
F8.08
s(S'1925'
p1581
I1
tp1582
F13.012972121861232
s(S'1232'
p1583
I1
tp1584
I7
s(S'1632'
p1585
I1
tp1586
F5.45969728
s(S'2327'
p1587
I2
tp1588
F-36.08987426322608
s(S'119'
p1589
I2
tp1590
F126.81643421769839
s(S'1017'
p1591
I2
tp1592
F40.14326314673588
s(S'2722'
p1593
I2
tp1594
F35.088889280038295
s(S'2025'
p1595
I0
tp1596
F12.13241986886628
s(S'1323'
p1597
I2
tp1598
F-27.70258498929912
s(S'2929'
p1599
I0
tp1600
F-33.62035978198537
s(S'1125'
p1601
I2
tp1602
F18.73946497435411
s(S'2418'
p1603
I1
tp1604
I-199
s(S'020'
p1605
I2
tp1606
F80.272106503187
s(S'2920'
p1607
I0
tp1608
F2.338049763354663
s(S'2030'
p1609
I2
tp1610
F-81.07240157657672
s(S'2430'
p1611
I0
tp1612
F-88.29294644720397
s(S'2029'
p1613
I1
tp1614
F-92.44657858509194
s(S'1926'
p1615
I2
tp1616
F-29.64678197981916
s(S'729'
p1617
I2
tp1618
F51.062990279257356
s(S'2124'
p1619
I1
tp1620
F-36.60640487608283
s(S'227'
p1621
I0
tp1622
F52.63821750885887
s(S'2330'
p1623
I2
tp1624
F-60.49417497367904
s(S'1931'
p1625
I1
tp1626
F4.9879159014334915
s(S'323'
p1627
I2
tp1628
F55.87552195895241
s(S'1819'
p1629
I2
tp1630
F-36.10152129872968
s(S'2427'
p1631
I2
tp1632
F14.315544675089617
s(S'1224'
p1633
I2
tp1634
F34.718152884769836
s(S'1426'
p1635
I1
tp1636
F8.882642565470107
s(S'1921'
p1637
I0
tp1638
F-16.175541797911166
s(S'723'
p1639
I2
tp1640
F56.06388774738733
s(S'1524'
p1641
I0
tp1642
F-38.25189730451965
s(S'1823'
p1643
I0
tp1644
F11.753440167608565
s(S'2329'
p1645
I1
tp1646
F-80.6388058017031
s(S'325'
p1647
I1
tp1648
F57.76353316619585
s(S'1131'
p1649
I0
tp1650
F45.91545267322332
s(S'1926'
p1651
I1
tp1652
F-10.977933071658379
s(S'2726'
p1653
I1
tp1654
F24.942737887713974
s(S'1421'
p1655
I1
tp1656
F37.26714446663131
s(S'1727'
p1657
I0
tp1658
F-38.27851711646366
s(S'531'
p1659
I2
tp1660
F56.940420075921004
s(S'1121'
p1661
I1
tp1662
F53.66056299920273
s(S'1428'
p1663
I2
tp1664
F-4.023358297875468
s(S'2632'
p1665
I0
tp1666
I0
s(S'1320'
p1667
I2
tp1668
F-64.00175782283122
s(S'831'
p1669
I1
tp1670
F58.122213919556934
s(S'024'
p1671
I1
tp1672
F-13.586670778773605
s(S'1519'
p1673
I0
tp1674
F-73.04756199782629
s(S'1830'
p1675
I0
tp1676
F-65.65429096389371
s(S'1720'
p1677
I1
tp1678
I-199
s(S'1126'
p1679
I0
tp1680
F21.71733650376416
s(S'2628'
p1681
I1
tp1682
F-1.8257896721586406
s(S'2731'
p1683
I1
tp1684
F5.303863057041219
s(S'032'
p1685
I0
tp1686
F-59.08497538513202
s(S'2326'
p1687
I2
tp1688
F24.750181441271486
s(S'2818'
p1689
I1
tp1690
I-199
s(S'2932'
p1691
I0
tp1692
F-1.8971453823417568
s(S'1422'
p1693
I0
tp1694
F-37.28445109615461
s(S'827'
p1695
I0
tp1696
F49.511785908036835
s(S'2225'
p1697
I2
tp1698
F-30.24558815498351
s(S'2728'
p1699
I2
tp1700
F0.4829990897224099
s(S'2027'
p1701
I2
tp1702
F-26.818180456801795
s(S'1528'
p1703
I1
tp1704
F48.64069415641878
s(S'2625'
p1705
I2
tp1706
F-16.09753923024792
s(S'1827'
p1707
I1
tp1708
F18.479138788822155
s(S'321'
p1709
I0
tp1710
F81.60488541349086
s(S'2929'
p1711
I2
tp1712
F-16.175933931136644
s(S'1622'
p1713
I0
tp1714
F-45.704537314963275
s(S'2627'
p1715
I2
tp1716
F18.513211648653627
s(S'2220'
p1717
I2
tp1718
F-75.0750021946483
s(S'2924'
p1719
I2
tp1720
F9.076303836113027
s(S'3023'
p1721
I2
tp1722
F53.2157549262675
s(S'2424'
p1723
I1
tp1724
F12.97897445954636
s(S'2921'
p1725
I2
tp1726
F-22.349807905716844
s(S'1822'
p1727
I2
tp1728
F-33.54185869943655
s(S'1625'
p1729
I1
tp1730
F13.257775513639197
s(S'3019'
p1731
I1
tp1732
F-52.32210721634263
s(S'028'
p1733
I0
tp1734
F-14.343501444699278
s(S'719'
p1735
I0
tp1736
F112.9230346096492
s(S'1122'
p1737
I1
tp1738
F48.43421874130472
s(S'924'
p1739
I0
tp1740
F56.74421222657383
s(S'1828'
p1741
I2
tp1742
F-25.089859995576752
s(S'2322'
p1743
I1
tp1744
F-34.167856139793976
s(S'2720'
p1745
I2
tp1746
F-38.049578933837275
s(S'623'
p1747
I1
tp1748
F56.79198148051058
s(S'1831'
p1749
I2
tp1750
F-37.44194135618967
s(S'1119'
p1751
I0
tp1752
F75.39312986186896
s(S'3030'
p1753
I1
tp1754
F-50.824643416225626
s(S'2230'
p1755
I1
tp1756
F-57.38401083877926
s(S'1127'
p1757
I2
tp1758
F-17.067363932300932
s(S'2432'
p1759
I2
tp1760
F-36.180313847858095
s(S'2732'
p1761
I1
tp1762
F3.2547212116582376
s(S'3032'
p1763
I2
tp1764
F-38.5326784
s(S'022'
p1765
I2
tp1766
F60.72122880502138
s(S'2928'
p1767
I1
tp1768
F-22.8606579678691
s(S'2920'
p1769
I2
tp1770
F11.676471152349588
s(S'1023'
p1771
I2
tp1772
F-16.446923294970205
s(S'1425'
p1773
I2
tp1774
F12.774352560848358
s(S'2628'
p1775
I2
tp1776
F-37.58091163872719
s(S'2623'
p1777
I1
tp1778
F-35.8032264543311
s(S'1328'
p1779
I2
tp1780
F-0.49265923376770226
s(S'2525'
p1781
I1
tp1782
F12.864265238909134
s(S'2223'
p1783
I1
tp1784
F-31.899432577148236
s(S'2420'
p1785
I2
tp1786
F-65.8064117292507
s(S'1021'
p1787
I1
tp1788
F61.010698981512334
s(S'3021'
p1789
I2
tp1790
F-5.23669034718214
s(S'2129'
p1791
I1
tp1792
F-58.92927201533699
s(S'2021'
p1793
I1
tp1794
F-41.03343023465854
s(S'730'
p1795
I0
tp1796
F55.585892956153636
s(S'1020'
p1797
I1
tp1798
F59.50983978607448
s(S'124'
p1799
I1
tp1800
F57.24588891091979
s(S'2624'
p1801
I0
tp1802
F4.267270900597015
s(S'721'
p1803
I2
tp1804
F-25.393650050838303
s(S'1128'
p1805
I0
tp1806
F51.73849505265826
s(S'1827'
p1807
I0
tp1808
F0.4948389500855539
s(S'920'
p1809
I1
tp1810
F51.275551355752526
s(S'1527'
p1811
I1
tp1812
F38.581743814625845
s(S'1326'
p1813
I0
tp1814
F-12.182789197922748
s(S'1028'
p1815
I2
tp1816
F51.83175089812635
s(S'2530'
p1817
I0
tp1818
F-35.71334005543331
s(S'518'
p1819
I1
tp1820
F168.27063158867583
s(S'2321'
p1821
I1
tp1822
F-28.49012164423857
s(S'1225'
p1823
I2
tp1824
F13.178209417803592
s(S'2824'
p1825
I1
tp1826
F9.21793310814235
s(S'1032'
p1827
I0
tp1828
F14.35157447768133
s(S'1129'
p1829
I1
tp1830
F51.18659673513467
s(S'2324'
p1831
I2
tp1832
F-37.607146988454055
s(S'1420'
p1833
I2
tp1834
F-51.69393851556214
s(S'2529'
p1835
I2
tp1836
F-17.94470500007234
s(S'2227'
p1837
I0
tp1838
F-37.98432589525196
s(S'031'
p1839
I1
tp1840
F45.65984564957081
s(S'1022'
p1841
I0
tp1842
F-10.399795003964137
s(S'1220'
p1843
I1
tp1844
F18.34302702956493
s(S'1731'
p1845
I1
tp1846
F21.31517799206126
s(S'2822'
p1847
I0
tp1848
F-2.2966844844636918
s(S'1728'
p1849
I1
tp1850
F-30.76334005877434
s(S'1919'
p1851
I0
tp1852
F0.7003034318456616
s(S'2620'
p1853
I1
tp1854
F-50.904396692676755
s(S'2931'
p1855
I1
tp1856
F5.8035571850504715
s(S'1329'
p1857
I0
tp1858
F43.12529276239404
s(S'820'
p1859
I1
tp1860
F-10.847257979936302
s(S'2220'
p1861
I1
tp1862
F-52.95141845387549
s(S'1920'
p1863
I0
tp1864
F-43.28404695500696
s(S'223'
p1865
I1
tp1866
F59.05197746579448
s(S'3025'
p1867
I0
tp1868
F-27.432393057325413
s(S'2022'
p1869
I1
tp1870
F-14.315170758079823
s(S'1018'
p1871
I0
tp1872
F149.17903908395127
s(S'1820'
p1873
I0
tp1874
I-200
s(S'1322'
p1875
I1
tp1876
F48.62607494917168
s(S'2025'
p1877
I1
tp1878
F-11.180466244397344
s(S'2522'
p1879
I1
tp1880
F-34.9528040766295
s(S'717'
p1881
I1
tp1882
F33.64549890165117
s(S'1520'
p1883
I1
tp1884
F-9.940661571848274
s(S'819'
p1885
I1
tp1886
F117.94830171899102
s(S'922'
p1887
I2
tp1888
F43.370375812985806
s(S'1430'
p1889
I2
tp1890
F20.00425299658384
s(S'2722'
p1891
I0
tp1892
F-32.23719491078928
s(S'2619'
p1893
I2
tp1894
F-5.555197549231189
s(S'2718'
p1895
I2
tp1896
F-60.50697008496454
s(S'1918'
p1897
I0
tp1898
F-39.263776147292155
s(S'1125'
p1899
I0
tp1900
F-6.474763070463858
s(S'927'
p1901
I1
tp1902
F51.915101593335635
s.