(dp0
(S'2922'
p1
I0
tp2
F4.822236243589844
s(S'1024'
p3
I2
tp4
F26.59629807364084
s(S'617'
p5
I2
tp6
F44.68398414628169
s(S'1424'
p7
I0
tp8
F15.334989630417779
s(S'020'
p9
I0
tp10
F87.86518081641226
s(S'117'
p11
I0
tp12
I0
s(S'1224'
p13
I0
tp14
F-17.44533117711276
s(S'2430'
p15
I2
tp16
F-29.743049986321704
s(S'1222'
p17
I0
tp18
F22.68945214496902
s(S'1624'
p19
I0
tp20
F-0.10205527915988805
s(S'117'
p21
I2
tp22
F48.64605492864017
s(S'2826'
p23
I2
tp24
F19.077485904074393
s(S'1423'
p25
I0
tp26
F5.793548853700249
s(S'824'
p27
I0
tp28
F57.55994571476274
s(S'1628'
p29
I1
tp30
F35.7523763762976
s(S'227'
p31
I2
tp32
F61.0831259991854
s(S'621'
p33
I1
tp34
F75.28984148161582
s(S'2418'
p35
I1
tp36
F-24.43578422753849
s(S'2621'
p37
I0
tp38
F0.3959428840869419
s(S'2822'
p39
I0
tp40
F3.8805378795320467
s(S'522'
p41
I1
tp42
F69.26793167140511
s(S'2331'
p43
I1
tp44
F-54.832182262819465
s(S'1819'
p45
I0
tp46
F0.08308269706771076
s(S'2032'
p47
I2
tp48
F2.7
s(S'1221'
p49
I0
tp50
F40.10698466196042
s(S'320'
p51
I0
tp52
F104.10394410357287
s(S'823'
p53
I1
tp54
F62.15256839165671
s(S'1623'
p55
I0
tp56
F8.636912260686737
s(S'723'
p57
I0
tp58
F58.46079025793159
s(S'2725'
p59
I0
tp60
F3.6657776374245463
s(S'2526'
p61
I0
tp62
F4.098875734065058
s(S'3024'
p63
I2
tp64
F41.41643288057909
s(S'221'
p65
I2
tp66
F77.16353509123903
s(S'429'
p67
I2
tp68
F61.11762627956713
s(S'2721'
p69
I2
tp70
F13.323299828438989
s(S'2524'
p71
I1
tp72
F2.347518670966452
s(S'1919'
p73
I1
tp74
F-29.157642516646142
s(S'620'
p75
I0
tp76
F72.81450352322415
s(S'2228'
p77
I2
tp78
F-5.3244625425585035
s(S'127'
p79
I0
tp80
F55.641909501565216
s(S'2132'
p81
I1
tp82
F-29.840000000000003
s(S'029'
p83
I0
tp84
F42.919853244131865
s(S'629'
p85
I0
tp86
F59.359495602501404
s(S'323'
p87
I0
tp88
F58.70673624729427
s(S'1827'
p89
I2
tp90
F-26.348513959597213
s(S'630'
p91
I2
tp92
F61.173640923892044
s(S'923'
p93
I0
tp94
F57.10486086394195
s(S'1428'
p95
I0
tp96
F40.49626808516999
s(S'1522'
p97
I2
tp98
F0.6583218582612554
s(S'1431'
p99
I0
tp100
F36.12761417945086
s(S'2024'
p101
I0
tp102
F1.4580498300665594
s(S'1325'
p103
I1
tp104
F47.648867316834476
s(S'620'
p105
I1
tp106
F101.96970608283218
s(S'2318'
p107
I1
tp108
F-0.6072748245872575
s(S'2421'
p109
I0
tp110
F-40.007931515437036
s(S'2819'
p111
I0
tp112
F6.495609691386035
s(S'928'
p113
I1
tp114
F61.704558129018274
s(S'417'
p115
I2
tp116
F44.66131540193438
s(S'1928'
p117
I2
tp118
F3.609473332706912
s(S'2326'
p119
I0
tp120
F-3.564697656013176
s(S'1122'
p121
I0
tp122
F23.48072752817763
s(S'627'
p123
I2
tp124
F59.89952253228527
s(S'219'
p125
I1
tp126
F126.78112739273186
s(S'1020'
p127
I2
tp128
F32.971465707624326
s(S'1017'
p129
I2
tp130
I1
s(S'2827'
p131
I0
tp132
F3.380215040129372
s(S'2932'
p133
I2
tp134
F9.327270780245271
s(S'1422'
p135
I2
tp136
F-9.933007497484216
s(S'1031'
p137
I1
tp138
F61.682101013953606
s(S'1619'
p139
I1
tp140
F9.17203196931931
s(S'2019'
p141
I1
tp142
F-8.750719762460811
s(S'2428'
p143
I2
tp144
F-7.306030771440476
s(S'2332'
p145
I1
tp146
F-27.439522472294506
s(S'1419'
p147
I2
tp148
F3.0547250068609673
s(S'321'
p149
I2
tp150
F72.26715364124723
s(S'731'
p151
I0
tp152
F55.351294939093364
s(S'1529'
p153
I2
tp154
F24.09238782725052
s(S'2627'
p155
I0
tp156
F2.8211867130799684
s(S'125'
p157
I1
tp158
F62.227532278087835
s(S'2521'
p159
I2
tp160
F2.111785161752546
s(S'1923'
p161
I1
tp162
I1
s(S'1230'
p163
I1
tp164
F60.617624240365174
s(S'1630'
p165
I1
tp166
F40.034127951754414
s(S'3022'
p167
I1
tp168
F27.758012817711304
s(S'2631'
p169
I1
tp170
F-85.29226939099587
s(S'2920'
p171
I1
tp172
F-5.037187491069582
s(S'1321'
p173
I0
tp174
F18.134024366753984
s(S'828'
p175
I1
tp176
F62.093578466903075
s(S'628'
p177
I2
tp178
F60.9707847688345
s(S'530'
p179
I2
tp180
F61.19439784687354
s(S'428'
p181
I1
tp182
F56.65111105482256
s(S'924'
p183
I2
tp184
F52.35457916463978
s(S'417'
p185
I1
tp186
F20.47733198447688
s(S'623'
p187
I0
tp188
F60.12793919567742
s(S'1523'
p189
I0
tp190
F7.523941540256859
s(S'2927'
p191
I0
tp192
F0.37387701530737383
s(S'1828'
p193
I0
tp194
F7.7042863248960405
s(S'2123'
p195
I2
tp196
F-1.3539290585003345
s(S'1020'
p197
I1
tp198
F85.29943276297031
s(S'1024'
p199
I1
tp200
F59.813174640844515
s(S'1719'
p201
I2
tp202
F-20.104374290757562
s(S'622'
p203
I2
tp204
F52.79015056988275
s(S'1918'
p205
I2
tp206
F-20.24482990212131
s(S'2432'
p207
I0
tp208
F0.0
s(S'3031'
p209
I2
tp210
F-79.60858029332556
s(S'2126'
p211
I1
tp212
F-8.705178848457916
s(S'431'
p213
I0
tp214
F29.81885762826014
s(S'2831'
p215
I2
tp216
F-61.474721418691836
s(S'219'
p217
I0
tp218
F125.99305871009518
s(S'2426'
p219
I1
tp220
F-18.61400882202234
s(S'2820'
p221
I2
tp222
F1.18
s(S'1625'
p223
I2
tp224
F-3.6099030112785817
s(S'420'
p225
I1
tp226
F102.69993536834747
s(S'1328'
p227
I0
tp228
F48.53815552752359
s(S'1320'
p229
I0
tp230
F-7.148102820790496
s(S'2823'
p231
I1
tp232
F2.9304164213785606
s(S'2629'
p233
I2
tp234
F-14.176129671126418
s(S'921'
p235
I1
tp236
F33.46644128902603
s(S'2524'
p237
I2
tp238
F22.64811424142325
s(S'3026'
p239
I0
tp240
F21.393653742394548
s(S'1522'
p241
I0
tp242
F3.0912667496313473
s(S'427'
p243
I0
tp244
F58.773752446650654
s(S'1821'
p245
I0
tp246
F-6.000280468526453
s(S'2128'
p247
I2
tp248
F1.7386912973816684
s(S'327'
p249
I1
tp250
F58.34671443805441
s(S'1620'
p251
I1
tp252
F-9.988980644005276
s(S'125'
p253
I2
tp254
F56.202159195421395
s(S'517'
p255
I1
tp256
I1
s(S'2728'
p257
I1
tp258
F-40.81673898608521
s(S'130'
p259
I2
tp260
F56.15531870965217
s(S'2426'
p261
I0
tp262
F-16.298427241962195
s(S'2923'
p263
I1
tp264
F8.207312342445434
s(S'3018'
p265
I2
tp266
I2
s(S'921'
p267
I2
tp268
F45.67471711774372
s(S'1326'
p269
I2
tp270
F24.070363101131946
s(S'218'
p271
I2
tp272
F146.2410927019102
s(S'1028'
p273
I0
tp274
F59.49082081683919
s(S'2129'
p275
I2
tp276
F-86.12718748813421
s(S'525'
p277
I2
tp278
F58.82406981265343
s(S'229'
p279
I2
tp280
F60.542758107204406
s(S'1722'
p281
I1
tp282
F-6.84021397579614
s(S'2926'
p283
I2
tp284
F25.37877897623808
s(S'1124'
p285
I0
tp286
F29.298103070211607
s(S'2122'
p287
I0
tp288
F2.4226374520367306
s(S'2723'
p289
I1
tp290
F3.582125367326692
s(S'331'
p291
I2
tp292
F53.36334795260021
s(S'818'
p293
I0
tp294
F210.58362719323753
s(S'1318'
p295
I0
tp296
F126.69089876289294
s(S'2119'
p297
I1
tp298
F9.775256745540492
s(S'1027'
p299
I1
tp300
F60.81452945639554
s(S'021'
p301
I0
tp302
F72.72389745944021
s(S'1718'
p303
I0
tp304
F1.7443032443552369
s(S'1225'
p305
I0
tp306
F30.902944268781006
s(S'524'
p307
I0
tp308
F58.11147663807436
s(S'2028'
p309
I1
tp310
F9.336661402449948
s(S'2924'
p311
I0
tp312
F21.32375481409817
s(S'2030'
p313
I1
tp314
F-33.415726988593555
s(S'2825'
p315
I2
tp316
F20.37372492318834
s(S'1420'
p317
I0
tp318
F-49.62860398745477
s(S'1122'
p319
I2
tp320
F8.352210238020675
s(S'2830'
p321
I0
tp322
F-64.05022692857882
s(S'1022'
p323
I2
tp324
F18.107104789144586
s(S'729'
p325
I1
tp326
F61.23561899920479
s(S'2528'
p327
I1
tp328
F-2.2752204916261434
s(S'1330'
p329
I2
tp330
F41.861534639258345
s(S'423'
p331
I1
tp332
F59.366155964102774
s(S'1931'
p333
I2
tp334
F-55.54811276829446
s(S'1730'
p335
I2
tp336
F0.5123443327927593
s(S'1427'
p337
I1
tp338
F51.61713247050405
s(S'121'
p339
I1
tp340
F72.39600666271993
s(S'1524'
p341
I2
tp342
F5.752089985746299
s(S'2527'
p343
I0
tp344
F1.803130091818094
s(S'2518'
p345
I0
tp346
I0
s(S'222'
p347
I2
tp348
F65.90333178853382
s(S'426'
p349
I2
tp350
F61.393990598213485
s(S'1124'
p351
I1
tp352
F53.48566735285924
s(S'324'
p353
I1
tp354
F57.73057447334674
s(S'2828'
p355
I0
tp356
F-7.4719047351483
s(S'1627'
p357
I1
tp358
F24.64310317046053
s(S'126'
p359
I0
tp360
F53.62406474106708
s(S'2329'
p361
I2
tp362
F-37.621191726154436
s(S'1323'
p363
I2
tp364
F12.079931524230615
s(S'1926'
p365
I2
tp366
F2.3471340920084387
s(S'1726'
p367
I2
tp368
F1.1438749823234198
s(S'2427'
p369
I2
tp370
F2.0806117084801827
s(S'1120'
p371
I1
tp372
F76.54820329976502
s(S'922'
p373
I0
tp374
F48.838216871706614
s(S'1429'
p375
I0
tp376
F41.398520620716894
s(S'2423'
p377
I1
tp378
F-2.7984218886986234
s(S'1430'
p379
I0
tp380
F37.039191327742
s(S'830'
p381
I1
tp382
F61.3340430463254
s(S'025'
p383
I1
tp384
F59.91995213634595
s(S'1229'
p385
I1
tp386
F61.152691355141314
s(S'2523'
p387
I2
tp388
F11.277194126364652
s(S'228'
p389
I0
tp390
F54.414674096599555
s(S'718'
p391
I2
tp392
F64.27142632628366
s(S'1621'
p393
I0
tp394
F-6.609845038305876
s(S'2519'
p395
I1
tp396
F-47.53695276443926
s(S'2125'
p397
I2
tp398
F-1.8621301097204612
s(S'323'
p399
I2
tp400
F64.45728244082291
s(S'1720'
p401
I2
tp402
F-12.98482973510015
s(S'2730'
p403
I1
tp404
F-20.222192068046812
s(S'2928'
p405
I1
tp406
F-26.318149574061827
s(S'1818'
p407
I1
tp408
F6.225438174502931
s(S'2628'
p409
I2
tp410
F3.169898176255457
s(S'2323'
p411
I2
tp412
F15.287261751489087
s(S'2422'
p413
I2
tp414
F-37.56401322258794
s(S'1522'
p415
I1
tp416
F15.310745373201382
s(S'2819'
p417
I1
tp418
F0.11260430700226776
s(S'2219'
p419
I1
tp420
F3.014022542094951
s(S'2026'
p421
I0
tp422
F-6.348699657672558
s(S'2826'
p423
I0
tp424
F4.316205348674682
s(S'120'
p425
I2
tp426
F106.94585899582327
s(S'1530'
p427
I1
tp428
F53.848301554831586
s(S'618'
p429
I1
tp430
F173.66913401737946
s(S'726'
p431
I1
tp432
F60.08701363130969
s(S'018'
p433
I1
tp434
F173.4703420741902
s(S'2225'
p435
I1
tp436
F-1.3989473562923525
s(S'226'
p437
I1
tp438
F57.56347832868113
s(S'1930'
p439
I0
tp440
F-25.29231243744252
s(S'2719'
p441
I1
tp442
F9.745307840340416
s(S'2027'
p443
I1
tp444
F-8.66148447532122
s(S'1623'
p445
I2
tp446
F-0.022821042512671808
s(S'122'
p447
I1
tp448
F66.18049002255319
s(S'2626'
p449
I0
tp450
F2.242793520259833
s(S'2629'
p451
I0
tp452
F-18.30371121859587
s(S'2526'
p453
I2
tp454
F1.158520990754754
s(S'2832'
p455
I1
tp456
I2
s(S'221'
p457
I0
tp458
F74.53242355261351
s(S'2828'
p459
I2
tp460
F-5.927312678181473
s(S'320'
p461
I2
tp462
F85.1338600746934
s(S'1525'
p463
I1
tp464
F35.22075220875159
s(S'127'
p465
I2
tp466
F55.219211130696515
s(S'531'
p467
I0
tp468
F52.959520475258294
s(S'2328'
p469
I0
tp470
F-33.290871675504725
s(S'029'
p471
I2
tp472
F57.7323708079518
s(S'1130'
p473
I1
tp474
F60.75088804898059
s(S'1927'
p475
I0
tp476
F-5.339060294197202
s(S'1220'
p477
I2
tp478
F15.220543443620935
s(S'2725'
p479
I2
tp480
F28.967857596802197
s(S'923'
p481
I2
tp482
F47.21126653484358
s(S'1219'
p483
I1
tp484
F13.047171688738445
s(S'631'
p485
I1
tp486
F51.06749027446766
s(S'1431'
p487
I2
tp488
F20.63665679091076
s(S'1829'
p489
I0
tp490
F8.083573971510644
s(S'1222'
p491
I1
tp492
F37.13839037928623
s(S'2121'
p493
I1
tp494
F7.095038890691907
s(S'317'
p495
I1
tp496
I1
s(S'931'
p497
I1
tp498
F61.6226243963066
s(S'027'
p499
I2
tp500
F59.41046071315546
s(S'2231'
p501
I1
tp502
F-53.74572087095995
s(S'1518'
p503
I1
tp504
F104.78966647382526
s(S'3029'
p505
I1
tp506
F-37.74891221170677
s(S'1831'
p507
I1
tp508
F-37.471219098741415
s(S'1721'
p509
I0
tp510
F-32.37041566938139
s(S'1127'
p511
I1
tp512
F61.76281819683964
s(S'929'
p513
I2
tp514
F59.47630725741905
s(S'2419'
p515
I1
tp516
F-22.541492018608874
s(S'2732'
p517
I2
tp518
F-19.848091211578833
s(S'2832'
p519
I2
tp520
F-18.577285390409507
s(S'1929'
p521
I1
tp522
F15.397252764322548
s(S'1020'
p523
I0
tp524
F39.993812001102285
s(S'022'
p525
I1
tp526
F34.90642473417103
s(S'520'
p527
I1
tp528
F100.93681611142043
s(S'626'
p529
I1
tp530
F61.24890014610674
s(S'2827'
p531
I2
tp532
F6.477521937489694
s(S'124'
p533
I0
tp534
F56.083437797661695
s(S'2622'
p535
I1
tp536
F10.444770973527794
s(S'424'
p537
I2
tp538
F62.39406375227344
s(S'430'
p539
I1
tp540
F56.38380926293245
s(S'527'
p541
I1
tp542
F59.741461266651925
s(S'2222'
p543
I1
tp544
F-22.2226493927622
s(S'225'
p545
I1
tp546
F62.1253875023722
s(S'724'
p547
I2
tp548
F48.210929812828596
s(S'920'
p549
I1
tp550
F52.25779109629017
s(S'418'
p551
I2
tp552
F165.5453252660595
s(S'1732'
p553
I2
tp554
I2
s(S'3027'
p555
I0
tp556
F18.958104704659497
s(S'2020'
p557
I1
tp558
F-21.98747847895271
s(S'731'
p559
I2
tp560
F60.182189404069426
s(S'1529'
p561
I0
tp562
F28.233862705682903
s(S'1826'
p563
I0
tp564
F1.6874066235749239
s(S'429'
p565
I0
tp566
F58.15089648095024
s(S'2528'
p567
I0
tp568
F-6.902724514902237
s(S'220'
p569
I2
tp570
F95.84460881663448
s(S'721'
p571
I1
tp572
F60.32737738709218
s(S'2520'
p573
I1
tp574
F-11.141380056074288
s(S'1231'
p575
I2
tp576
F47.59935073271531
s(S'2425'
p577
I0
tp578
F-22.469580979199996
s(S'817'
p579
I1
tp580
F42.29935369691995
s(S'1631'
p581
I2
tp582
F-14.117423710247973
s(S'1321'
p583
I2
tp584
F22.168768956608496
s(S'2122'
p585
I1
tp586
F3.936096549765202
s(S'2630'
p587
I2
tp588
F-34.85294314478244
s(S'1029'
p589
I0
tp590
F58.94677973765736
s(S'2724'
p591
I0
tp592
F3.9441298457048966
s(S'1523'
p593
I2
tp594
F10.892259736383732
s(S'1123'
p595
I0
tp596
F33.40681263579953
s(S'925'
p597
I1
tp598
F60.96760576930774
s(S'1822'
p599
I1
tp600
F-0.2791668448718265
s(S'826'
p601
I1
tp602
F61.41685128114299
s(S'1122'
p603
I1
tp604
F56.640011591258215
s(S'1319'
p605
I0
tp606
F26.009769880498947
s(S'1626'
p607
I1
tp608
F14.514407200208549
s(S'026'
p609
I0
tp610
F52.26335574829786
s(S'1719'
p611
I0
tp612
F-0.41805457689268016
s(S'1226'
p613
I0
tp614
F29.061455398024826
s(S'3031'
p615
I0
tp616
F-78.81532374673486
s(S'1825'
p617
I2
tp618
F2.2152311770235737
s(S'1128'
p619
I1
tp620
F61.9535439637744
s(S'2719'
p621
I0
tp622
F-4.283692011357278
s(S'2423'
p623
I0
tp624
F-14.06798533279356
s(S'329'
p625
I1
tp626
F57.496791914616686
s(S'017'
p627
I0
tp628
F48.8445312429879
s(S'2226'
p629
I2
tp630
F1.7592839498330792
s(S'030'
p631
I1
tp632
F27.34768178538493
s(S'2324'
p633
I1
tp634
F4.890046416212334
s(S'625'
p635
I1
tp636
F61.0925297850724
s(S'2026'
p637
I2
tp638
F2.0611041397082834
s(S'2426'
p639
I2
tp640
F2.623239444253426
s(S'2130'
p641
I0
tp642
F-51.20804602279042
s(S'1932'
p643
I2
tp644
I-199
s(S'2821'
p645
I1
tp646
F13.136741736737022
s(S'2930'
p647
I1
tp648
F-19.13653189609516
s(S'1728'
p649
I2
tp650
F11.20707624303397
s(S'821'
p651
I1
tp652
F64.20839986837838
s(S'1624'
p653
I2
tp654
F-13.658563289822865
s(S'2720'
p655
I2
tp656
F1.3875373535881468
s(S'2620'
p657
I2
tp658
F9.339232613937275
s(S'725'
p659
I0
tp660
F55.81949062878554
s(S'623'
p661
I1
tp662
F61.96789027237291
s(S'2524'
p663
I0
tp664
F0.0
s(S'2220'
p665
I2
tp666
F-23.325931899585527
s(S'2020'
p667
I0
tp668
F-6.544093311020245
s(S'032'
p669
I2
tp670
F-70.08703494340094
s(S'129'
p671
I1
tp672
F38.82806931862397
s(S'1821'
p673
I2
tp674
F-30.18773922987677
s(S'2128'
p675
I0
tp676
F4.158090724012408
s(S'2022'
p677
I2
tp678
F3.114038625642997
s(S'1725'
p679
I1
tp680
F10.498461544613445
s(S'1729'
p681
I0
tp682
F10.729167757858027
s(S'125'
p683
I0
tp684
F55.80646566918191
s(S'2625'
p685
I1
tp686
F3.5137538276725766
s(S'2127'
p687
I1
tp688
F4.200146715840734
s(S'2018'
p689
I2
tp690
F-30.75300759552
s(S'2523'
p691
I1
tp692
F2.3666703407668574
s(S'1925'
p693
I2
tp694
F2.0654664604403754
s(S'322'
p695
I0
tp696
F71.4585671041236
s(S'818'
p697
I1
tp698
F100.61196841926198
s(S'921'
p699
I0
tp700
F32.5070012243706
s(S'2428'
p701
I0
tp702
F-6.229155538070342
s(S'119'
p703
I1
tp704
F131.94805565913035
s(S'424'
p705
I0
tp706
F58.097861345265336
s(S'2518'
p707
I2
tp708
F-30.840000000000003
s(S'1223'
p709
I2
tp710
F26.37741437638998
s(S'1327'
p711
I1
tp712
F57.59692587699701
s(S'229'
p713
I0
tp714
F51.80654746387142
s(S'517'
p715
I0
tp716
I0
s(S'1124'
p717
I2
tp718
F18.788733536301745
s(S'926'
p719
I1
tp720
F60.61044839416881
s(S'2531'
p721
I1
tp722
F-16.22650246961882
s(S'1723'
p723
I2
tp724
F8.234886820372914
s(S'2018'
p725
I1
tp726
F7.728136164850526
s(S'1318'
p727
I2
tp728
F57.44605389412255
s(S'2320'
p729
I0
tp730
F0.5284559214124988
s(S'021'
p731
I2
tp732
F58.48646234387269
s(S'1718'
p733
I2
tp734
F10.992314483250189
s(S'524'
p735
I2
tp736
F56.57111124425451
s(S'2232'
p737
I0
tp738
I-200
s(S'2825'
p739
I0
tp740
F8.513630281965266
s(S'2430'
p741
I1
tp742
F-16.05709679801366
s(S'2029'
p743
I2
tp744
F-14.847519019208871
s(S'825'
p745
I2
tp746
F56.74872081827592
s(S'2830'
p747
I2
tp748
F-77.65591092932168
s(S'2830'
p749
I1
tp750
F-37.50681500699878
s(S'1832'
p751
I2
tp752
I1
s(S'217'
p753
I1
tp754
I1
s(S'1330'
p755
I0
tp756
F57.60972483822108
s(S'2330'
p757
I1
tp758
F-15.294727393523171
s(S'1931'
p759
I0
tp760
F-59.52604341970923
s(S'1730'
p761
I0
tp762
F5.086087394301117
s(S'522'
p763
I2
tp764
F64.39268532642639
s(S'330'
p765
I2
tp766
F60.48814346432571
s(S'1824'
p767
I2
tp768
F-53.812461800677674
s(S'722'
p769
I2
tp770
F46.3528551642626
s(S'823'
p771
I2
tp772
F54.71477581027552
s(S'2221'
p773
I0
tp774
F0.048759714231167095
s(S'1921'
p775
I1
tp776
F9.217959264257441
s(S'222'
p777
I0
tp778
F70.04532815495702
s(S'2721'
p779
I0
tp780
F1.792648009743318
s(S'1418'
p781
I1
tp782
F62.98567279942264
s(S'3024'
p783
I1
tp784
F27.876715376335248
s(S'2023'
p785
I0
tp786
F1.8192629372199465
s(S'624'
p787
I0
tp788
F58.923916510320794
s(S'1531'
p789
I1
tp790
F29.26441614007294
s(S'1519'
p791
I0
tp792
F4.825423974894552
s(S'1626'
p793
I2
tp794
F4.122605344418059
s(S'1926'
p795
I0
tp796
F0.14779503426638846
s(S'2219'
p797
I2
tp798
I1
s(S'2726'
p799
I2
tp800
F9.098923023007973
s(S'518'
p801
I2
tp802
F135.6778561864513
s(S'2919'
p803
I0
tp804
F3.115814711194815
s(S'1724'
p805
I0
tp806
F-15.06132004958882
s(S'1429'
p807
I2
tp808
F34.86436306481006
s(S'1521'
p809
I0
tp810
F-0.32809855539317123
s(S'529'
p811
I1
tp812
F60.050524252563065
s(S'1121'
p813
I2
tp814
F17.519469486022718
s(S'1324'
p815
I1
tp816
F43.739755420948434
s(S'331'
p817
I0
tp818
F32.30467807537208
s(S'2518'
p819
I1
tp820
F4.638961218014678
s(S'2720'
p821
I1
tp822
F3.722076064161997
s(S'228'
p823
I2
tp824
F58.23216135245613
s(S'2727'
p825
I2
tp826
F16.258884231480927
s(S'024'
p827
I2
tp828
F61.39227315546739
s(S'1018'
p829
I0
tp830
F47.46534093558778
s(S'2318'
p831
I2
tp832
F-10.21033307718514
s(S'529'
p833
I2
tp834
F61.527365538990054
s(S'1526'
p835
I1
tp836
F11.082041900834735
s(S'917'
p837
I0
tp838
I1
s(S'128'
p839
I1
tp840
F45.31234645638893
s(S'2327'
p841
I2
tp842
F-17.655878701431433
s(S'2731'
p843
I2
tp844
F-44.44445143818221
s(S'2723'
p845
I0
tp846
F1.767379288947767
s(S'1126'
p847
I0
tp848
F30.71155410489576
s(S'2822'
p849
I2
tp850
F23.491251713523557
s(S'2124'
p851
I0
tp852
F-34.388778446415635
s(S'1030'
p853
I1
tp854
F60.95342951395291
s(S'1618'
p855
I1
tp856
F55.08118553420837
s(S'1422'
p857
I1
tp858
F-5.318538802755708
s(S'323'
p859
I1
tp860
F62.9055993209723
s(S'727'
p861
I2
tp862
F57.85112201621968
s(S'1930'
p863
I2
tp864
F-7.793918325346551
s(S'523'
p865
I0
tp866
F58.13514000348143
s(S'1424'
p867
I1
tp868
F24.46962864770429
s(S'425'
p869
I0
tp870
F58.1756544064114
s(S'2626'
p871
I2
tp872
F11.498306284663196
s(S'321'
p873
I1
tp874
F72.13150163259101
s(S'822'
p875
I0
tp876
F61.5520700951272
s(S'1622'
p877
I1
tp878
F8.872190914332064
s(S'1922'
p879
I1
tp880
F5.663544775318169
s(S'2919'
p881
I1
tp882
F-12.195959552893106
s(S'1920'
p883
I1
tp884
F-14.732295518946309
s(S'919'
p885
I0
tp886
F43.054677254696735
s(S'1928'
p887
I0
tp888
F3.6625345275855374
s(S'3023'
p889
I1
tp890
F19.570602313335005
s(S'2424'
p891
I0
tp892
F2.3362206049087524
s(S'2921'
p893
I1
tp894
F13.58905859977125
s(S'2829'
p895
I1
tp896
F-42.0407456069219
s(S'2328'
p897
I2
tp898
F1.9355857913718109
s(S'2532'
p899
I0
tp900
I-200
s(S'829'
p901
I1
tp902
F62.11927880215629
s(S'1625'
p903
I0
tp904
F2.1677737984
s(S'1927'
p905
I2
tp906
F1.2236857966805077
s(S'1421'
p907
I2
tp908
F5.50110008770714
s(S'2218'
p909
I0
tp910
F-128.57186631994367
s(S'028'
p911
I1
tp912
F34.562104555787634
s(S'2619'
p913
I2
tp914
F-37.17821633882997
s(S'628'
p915
I1
tp916
F59.228900043480245
s(S'2532'
p917
I2
tp918
F-21.55369011031169
s(S'1724'
p919
I1
tp920
F-15.89309148145215
s(S'530'
p921
I1
tp922
F59.546332818810335
s(S'1829'
p923
I2
tp924
F-0.3403762046833283
s(S'2120'
p925
I0
tp926
F-30.59004945767326
s(S'627'
p927
I0
tp928
F58.367667454608096
s(S'2322'
p929
I2
tp930
F5.402360707931771
s(S'027'
p931
I0
tp932
F55.44274330562453
s(S'1227'
p933
I0
tp934
F48.80497093753446
s(S'2319'
p935
I0
tp936
F-8.0442981296369
s(S'1721'
p937
I2
tp938
F-31.715217242846055
s(S'3030'
p939
I0
tp940
F-34.94240362649547
s(S'2230'
p941
I2
tp942
F-17.87902533461835
s(S'929'
p943
I0
tp944
F59.222702969369614
s(S'2732'
p945
I0
tp946
F8.577190267376338
s(S'2832'
p947
I0
tp948
F-21.26579219054125
s(S'1324'
p949
I0
tp950
F19.14319843560587
s(S'2018'
p951
I0
tp952
F-102.75216767798452
s(S'1920'
p953
I2
tp954
F0.8971927410756422
s(S'421'
p955
I1
tp956
F74.92363080435919
s(S'1425'
p957
I1
tp958
F6.88156285961165
s(S'1521'
p959
I1
tp960
F23.111738503292486
s(S'2623'
p961
I2
tp962
F-14.983813057047513
s(S'724'
p963
I0
tp964
F56.71050413226519
s(S'2525'
p965
I0
tp966
F-30.694056591083914
s(S'2223'
p967
I2
tp968
F-7.353402248633471
s(S'3027'
p969
I2
tp970
F35.38932380178322
s(S'2618'
p971
I2
tp972
F3.623943470584878
s(S'2123'
p973
I0
tp974
F-7.808370992097327
s(S'2420'
p975
I1
tp976
F3.8495747974300536
s(S'019'
p977
I1
tp978
F111.05770515941813
s(S'1826'
p979
I2
tp980
F0.7072086147629758
s(S'2129'
p981
I0
tp982
F-31.909359166403256
s(S'326'
p983
I1
tp984
F57.81864635084805
s(S'730'
p985
I1
tp986
F58.78849202947076
s(S'1621'
p987
I1
tp988
F-1.8397784685014678
s(S'324'
p989
I0
tp990
F58.34041809136147
s(S'2729'
p991
I1
tp992
F-31.078310725670278
s(S'1928'
p993
I1
tp994
F11.947551237920742
s(S'1231'
p995
I0
tp996
F54.94417017490991
s(S'2429'
p997
I1
tp998
F-12.14401310188198
s(S'2632'
p999
I2
tp1000
I2
s(S'1631'
p1001
I0
tp1002
F3.308690666055619
s(S'130'
p1003
I1
tp1004
F39.36010401347129
s(S'719'
p1005
I1
tp1006
F124.14196790712009
s(S'2630'
p1007
I0
tp1008
F-60.08341851139459
s(S'2923'
p1009
I2
tp1010
F-3.3829695843713736
s(S'1029'
p1011
I2
tp1012
F61.11057139742699
s(S'2724'
p1013
I2
tp1014
F19.607452653374114
s(S'2229'
p1015
I0
tp1016
F-33.817398183732514
s(S'2718'
p1017
I1
tp1018
I1
s(S'2419'
p1019
I0
tp1020
F-1.8153464844413412
s(S'1019'
p1021
I2
tp1022
F23.334945582485908
s(S'1123'
p1023
I2
tp1024
F40.24076314332418
s(S'2321'
p1025
I2
tp1026
F2.3674414050433104
s(S'2118'
p1027
I2
tp1028
F-30.516143488488133
s(S'2926'
p1029
I1
tp1030
F5.190404822924506
s(S'2118'
p1031
I1
tp1032
F-128.36149379543158
s(S'1119'
p1033
I1
tp1034
F73.29602519427613
s(S'026'
p1035
I2
tp1036
F61.26890620714844
s(S'2727'
p1037
I0
tp1038
F1.1175810222875877
s(S'230'
p1039
I1
tp1040
F48.130724890549104
s(S'1027'
p1041
I2
tp1042
F54.72848363669426
s(S'1118'
p1043
I2
tp1044
F58.84258538562177
s(S'2425'
p1045
I2
tp1046
F2.289174322760354
s(S'2031'
p1047
I1
tp1048
F-11.256641747082213
s(S'2824'
p1049
I0
tp1050
F15.414020739560296
s(S'622'
p1051
I0
tp1052
F62.548335820864736
s(S'1129'
p1053
I2
tp1054
F58.09143809429257
s(S'728'
p1055
I1
tp1056
F60.72201746414325
s(S'128'
p1057
I0
tp1058
F46.96998197606326
s(S'2529'
p1059
I1
tp1060
F-35.379159466063975
s(S'2227'
p1061
I1
tp1062
F4.15342461905935
s(S'1331'
p1063
I0
tp1064
F45.399328119429825
s(S'3021'
p1065
I1
tp1066
F10.445554187010444
s(S'2327'
p1067
I1
tp1068
F3.99436217197367
s(S'919'
p1069
I2
tp1070
F57.100367196637116
s(S'1731'
p1071
I0
tp1072
F-23.501032361769266
s(S'521'
p1073
I2
tp1074
F65.26825482809761
s(S'1728'
p1075
I0
tp1076
F-17.824404577876855
s(S'017'
p1077
I2
tp1078
F49.295615883939
s(S'423'
p1079
I2
tp1080
F61.270284659689146
s(S'120'
p1081
I1
tp1082
F79.47831267735565
s(S'2620'
p1083
I0
tp1084
F1.5233846953303898
s(S'725'
p1085
I2
tp1086
F55.658307353035624
s(S'1427'
p1087
I2
tp1088
F28.763496485370737
s(S'820'
p1089
I2
tp1090
F48.349457218010926
s(S'2220'
p1091
I0
tp1092
F-2.169116596078681
s(S'223'
p1093
I0
tp1094
F59.24278617383698
s(S'2019'
p1095
I0
tp1096
I0
s(S'1528'
p1097
I1
tp1098
F50.401045867069094
s(S'2618'
p1099
I0
tp1100
I1
s(S'2228'
p1101
I1
tp1102
F6.703273045616842
s(S'426'
p1103
I1
tp1104
F56.48973473019666
s(S'1820'
p1105
I1
tp1106
F-38.480392839311
s(S'324'
p1107
I2
tp1108
F61.868613607395076
s(S'1925'
p1109
I0
tp1110
F2.386134668961613
s(S'922'
p1111
I2
tp1112
F39.583406896154
s(S'1618'
p1113
I2
tp1114
F-3.4720991689447978
s(S'3020'
p1115
I0
tp1116
F11.373000071775092
s(S'2427'
p1117
I1
tp1118
F4.469068870994992
s(S'819'
p1119
I2
tp1120
F77.32478591864026
s(S'1421'
p1121
I0
tp1122
F8.299059669123999
s(S'118'
p1123
I2
tp1124
F183.30488050975964
s(S'118'
p1125
I0
tp1126
F180.22423152316114
s(S'830'
p1127
I2
tp1128
F59.98684677324839
s(S'2722'
p1129
I1
tp1130
F1.6763600543755883
s(S'1229'
p1131
I2
tp1132
F56.49415593436295
s(S'1723'
p1133
I0
tp1134
F2.6110703005534805
s(S'2831'
p1135
I0
tp1136
F-128.01344494811124
s(S'2929'
p1137
I1
tp1138
F-26.887911906239236
s(S'1125'
p1139
I1
tp1140
F55.540284000992365
s(S'2320'
p1141
I2
tp1142
F-39.011242856366756
s(S'123'
p1143
I1
tp1144
F56.680363712574
s(S'020'
p1145
I2
tp1146
F109.27078290700027
s(S'419'
p1147
I1
tp1148
F145.49041758620257
s(S'2718'
p1149
I2
tp1150
F14.880623433569227
s(S'1026'
p1151
I0
tp1152
F46.85637416839449
s(S'020'
p1153
I1
tp1154
F78.28446907158673
s(S'2232'
p1155
I2
tp1156
I2
s(S'1224'
p1157
I1
tp1158
F51.49318285792453
s(S'525'
p1159
I1
tp1160
F61.981663051642315
s(S'2029'
p1161
I0
tp1162
F-14.129946315784842
s(S'2022'
p1163
I0
tp1164
F0.5459563453683884
s(S'917'
p1165
I1
tp1166
F39.76949620269571
s(S'1324'
p1167
I2
tp1168
F16.84620665588546
s(S'824'
p1169
I1
tp1170
F61.39034781808867
s(S'2224'
p1171
I1
tp1172
F-8.382168270280165
s(S'618'
p1173
I2
tp1174
F149.76796021837498
s(S'227'
p1175
I1
tp1176
F57.72457641139899
s(S'2026'
p1177
I1
tp1178
F-0.2015462961259582
s(S'522'
p1179
I0
tp1180
F63.00499702165254
s(S'330'
p1181
I0
tp1182
F51.26152345793128
s(S'422'
p1183
I0
tp1184
F67.59492697588249
s(S'1819'
p1185
I1
tp1186
F2.4548997448716805
s(S'2621'
p1187
I2
tp1188
F18.576631481019405
s(S'318'
p1189
I1
tp1190
F173.14488180794524
s(S'1426'
p1191
I0
tp1192
F10.032615977764936
s(S'823'
p1193
I0
tp1194
F46.68041952395829
s(S'2221'
p1195
I2
tp1196
F5.946362609729857
s(S'122'
p1197
I2
tp1198
F70.04309187031306
s(S'1220'
p1199
I0
tp1200
F8.930769979026367
s(S'723'
p1201
I1
tp1202
F64.7104759778512
s(S'528'
p1203
I0
tp1204
F58.45758919979712
s(S'2023'
p1205
I2
tp1206
F-2.2873696965247374
s(S'2024'
p1207
I2
tp1208
F4.820831903814649
s(S'429'
p1209
I1
tp1210
F60.01439021435664
s(S'1823'
p1211
I1
tp1212
F0.6707360910184148
s(S'1322'
p1213
I0
tp1214
F14.033269801851286
s(S'325'
p1215
I0
tp1216
F56.19257924037565
s(S'2920'
p1217
I2
tp1218
F38.577498935152676
s(S'1131'
p1219
I1
tp1220
F59.92402555791662
s(S'127'
p1221
I1
tp1222
F60.636062323755134
s(S'2219'
p1223
I0
tp1224
F-89.30352765648425
s(S'2726'
p1225
I0
tp1226
F1.9960495527436428
s(S'2619'
p1227
I1
tp1228
F-1.1187015794217996
s(S'630'
p1229
I1
tp1230
F59.83717161888115
s(S'2925'
p1231
I2
tp1232
F29.0980451357932
s(S'1121'
p1233
I0
tp1234
F41.69329118422396
s(S'923'
p1235
I1
tp1236
F58.92807333766543
s(S'1428'
p1237
I1
tp1238
F59.389108451700295
s(S'1431'
p1239
I1
tp1240
F40.662116812978766
s(S'831'
p1241
I0
tp1242
F60.28863655655591
s(S'2125'
p1243
I1
tp1244
F-0.7087961454789085
s(S'024'
p1245
I0
tp1246
F58.39530858859829
s(S'1228'
p1247
I0
tp1248
F56.397950560561014
s(S'2318'
p1249
I0
tp1250
F-26.795222107347993
s(S'1830'
p1251
I1
tp1252
F30.372724241499597
s(S'931'
p1253
I2
tp1254
F58.570630178534195
s(S'1126'
p1255
I1
tp1256
F54.215659745912205
s(S'3029'
p1257
I2
tp1258
F-21.899348703934436
s(S'2032'
p1259
I0
tp1260
F5.238819824639999
s(S'1626'
p1261
I0
tp1262
F7.14644354657577
s(S'918'
p1263
I2
tp1264
F53.42392941940762
s(S'129'
p1265
I2
tp1266
F60.147180102430966
s(S'2326'
p1267
I1
tp1268
F-6.75953160133769
s(S'023'
p1269
I1
tp1270
F58.494340290955975
s(S'1223'
p1271
I1
tp1272
F51.997471186500505
s(S'1625'
p1273
I1
tp1274
F11.214941001076442
s(S'526'
p1275
I1
tp1276
F61.477607539221374
s(S'2132'
p1277
I0
tp1278
F-1.3712000000000018
s(S'1226'
p1279
I2
tp1280
F18.171892739416133
s(S'2827'
p1281
I1
tp1282
F10.672020108955225
s(S'2932'
p1283
I1
tp1284
F11.145259163785509
s(S'827'
p1285
I1
tp1286
F60.948189659757965
s(S'2326'
p1287
I2
tp1288
F3.9610667944776874
s(S'727'
p1289
I0
tp1290
F58.01904283338002
s(S'430'
p1291
I2
tp1292
F60.715361531976995
s(S'523'
p1293
I2
tp1294
F61.45346570419717
s(S'225'
p1295
I2
tp1296
F58.836400136118606
s(S'2332'
p1297
I0
tp1298
F-35.82
s(S'2725'
p1299
I1
tp1300
F1.3300524764841333
s(S'822'
p1301
I2
tp1302
F32.76860437316205
s(S'123'
p1303
I0
tp1304
F54.03030746453054
s(S'2627'
p1305
I1
tp1306
F4.4884496033334225
s(S'720'
p1307
I1
tp1308
F97.35094619666638
s(S'1520'
p1309
I0
tp1310
F-25.684310149484716
s(S'2521'
p1311
I1
tp1312
F-62.26670282642789
s(S'1230'
p1313
I0
tp1314
F55.08606854778544
s(S'1221'
p1315
I1
tp1316
F32.879073148644245
s(S'2424'
p1317
I2
tp1318
F13.18712924939945
s(S'1630'
p1319
I0
tp1320
F27.25333676525416
s(S'3022'
p1321
I2
tp1322
F41.05209758960673
s(S'2631'
p1323
I0
tp1324
F-71.07594184247655
s(S'3019'
p1325
I0
tp1326
F18.57639314357109
s(S'2218'
p1327
I2
tp1328
F-9.182800374628897
s(S'1321'
p1329
I1
tp1330
F48.76327651138447
s(S'828'
p1331
I2
tp1332
F60.42663890008363
s(S'2228'
p1333
I0
tp1334
F1.9935927720227684
s(S'924'
p1335
I1
tp1336
F61.980375555817666
s(S'620'
p1337
I2
tp1338
F72.26910661128719
s(S'1523'
p1339
I1
tp1340
F33.8281103690792
s(S'1828'
p1341
I1
tp1342
F15.934198123098886
s(S'2322'
p1343
I0
tp1344
F5.891804781478371
s(S'1227'
p1345
I2
tp1346
F33.04844837609806
s(S'2319'
p1347
I2
tp1348
F5.845442155399946
s(S'930'
p1349
I0
tp1350
F60.008070356164176
s(S'3030'
p1351
I2
tp1352
F-49.08731236025524
s(S'2230'
p1353
I0
tp1354
F-44.193112992669136
s(S'2226'
p1355
I0
tp1356
F-34.64654884055727
s(S'3028'
p1357
I0
tp1358
F-2.2371603118517562
s(S'2432'
p1359
I1
tp1360
I1
s(S'328'
p1361
I1
tp1362
F56.56121119248498
s(S'920'
p1363
I0
tp1364
F73.14479932065979
s(S'2925'
p1365
I0
tp1366
F9.596665914966316
s(S'2325'
p1367
I1
tp1368
F-0.49008319709594206
s(S'418'
p1369
I0
tp1370
F201.7178660240968
s(S'319'
p1371
I1
tp1372
F128.83488439926865
s(S'030'
p1373
I2
tp1374
F34.77384690481311
s(S'220'
p1375
I0
tp1376
F89.87587247696513
s(S'625'
p1377
I2
tp1378
F56.70059430812883
s(S'2820'
p1379
I1
tp1380
F9.948357844066209
s(S'1924'
p1381
I0
tp1382
F-36.855165400234114
s(S'1225'
p1383
I1
tp1384
F48.492715900906084
s(S'420'
p1385
I2
tp1386
F92.85200964593785
s(S'2623'
p1387
I0
tp1388
F-4.393028721937636
s(S'2930'
p1389
I2
tp1390
F-23.753454138880052
s(S'1424'
p1391
I2
tp1392
F10.27444342527626
s(S'2525'
p1393
I2
tp1394
F10.856216088935085
s(S'2223'
p1395
I0
tp1396
F0.5232362795409917
s(S'224'
p1397
I0
tp1398
F55.31730446794946
s(S'3026'
p1399
I1
tp1400
F16.00369438601491
s(S'2021'
p1401
I0
tp1402
F0.9892375829345529
s(S'2421'
p1403
I2
tp1404
F-18.163105195360835
s(S'124'
p1405
I2
tp1406
F61.723703324081754
s(S'2624'
p1407
I1
tp1408
F0.060860682107757524
s(S'327'
p1409
I2
tp1410
F61.27856443049159
s(S'1918'
p1411
I0
tp1412
F0.8569721865660203
s(S'2322'
p1413
I1
tp1414
F2.8054031359952907
s(S'2130'
p1415
I2
tp1416
F-59.58947560090838
s(S'825'
p1417
I0
tp1418
F51.48301877098813
s(S'3021'
p1419
I0
tp1420
F8.623309941136624
s(S'1527'
p1421
I0
tp1422
F21.975592342517896
s(S'2923'
p1423
I0
tp1424
F-27.146681325840255
s(S'1326'
p1425
I1
tp1426
F51.36833308636038
s(S'428'
p1427
I0
tp1428
F58.106708988174866
s(S'2229'
p1429
I2
tp1430
F-19.665010734671267
s(S'1028'
p1431
I1
tp1432
F61.78183400239549
s(S'1219'
p1433
I0
tp1434
F7.324171826919587
s(S'417'
p1435
I0
tp1436
F8.11035056972981
s(S'2530'
p1437
I1
tp1438
F-31.08519429234115
s(S'1722'
p1439
I0
tp1440
F3.400995560464347
s(S'218'
p1441
I0
tp1442
F157.5148394687319
s(S'1822'
p1443
I0
tp1444
F0.3875240016202093
s(S'518'
p1445
I0
tp1446
F118.0246268459171
s(S'926'
p1447
I2
tp1448
F51.13240342227515
s(S'2631'
p1449
I2
tp1450
F-29.52894085655075
s(S'1318'
p1451
I1
tp1452
F6.630443515376236
s(S'2119'
p1453
I2
tp1454
F-6.431394393358734
s(S'1027'
p1455
I0
tp1456
F52.713822762798394
s(S'1118'
p1457
I0
tp1458
F182.05551386790754
s(S'1718'
p1459
I1
tp1460
F68.58470715385799
s(S'231'
p1461
I2
tp1462
F39.341462117104975
s(S'2824'
p1463
I2
tp1464
F25.65398185317953
s(S'2431'
p1465
I1
tp1466
F-40.5152662477334
s(S'2028'
p1467
I0
tp1468
F2.9496317771227023
s(S'1323'
p1469
I1
tp1470
F26.798911715493997
s(S'1129'
p1471
I0
tp1472
F57.791475981676506
s(S'419'
p1473
I0
tp1474
F127.11658764351678
s(S'1420'
p1475
I1
tp1476
F19.31354352516645
s(S'1629'
p1477
I2
tp1478
F-9.337221166182617
s(S'031'
p1479
I0
tp1480
F-45.47704985411254
s(S'1331'
p1481
I2
tp1482
F34.03275402333102
s(S'017'
p1483
I1
tp1484
F56.0329081360281
s(S'2418'
p1485
I2
tp1486
F-50.05451319810061
s(S'2528'
p1487
I2
tp1488
F-10.512412743296133
s(S'1731'
p1489
I2
tp1490
F-13.480230703689942
s(S'521'
p1491
I0
tp1492
F70.64925813091817
s(S'2131'
p1493
I1
tp1494
F-16.71061044859736
s(S'423'
p1495
I0
tp1496
F61.2929044885805
s(S'1825'
p1497
I0
tp1498
F4.476905361763729
s(S'2931'
p1499
I0
tp1500
F-91.34604359696515
s(S'1427'
p1501
I0
tp1502
F32.2581523488271
s(S'820'
p1503
I0
tp1504
F64.71920303843406
s(S'121'
p1505
I2
tp1506
F77.79772901058037
s(S'223'
p1507
I2
tp1508
F64.21518099449023
s(S'2218'
p1509
I1
tp1510
F-61.20326002702535
s(S'320'
p1511
I1
tp1512
F98.19971902761571
s(S'3025'
p1513
I1
tp1514
F21.68282321642296
s(S'1218'
p1515
I0
tp1516
F30.266240514927397
s(S'1322'
p1517
I2
tp1518
F-1.5380565663714236
s(S'1627'
p1519
I0
tp1520
F-5.9689709146744185
s(S'1218'
p1521
I2
tp1522
F30.193833305199608
s(S'1531'
p1523
I2
tp1524
F-9.906897232300285
s(S'2522'
p1525
I0
tp1526
F-39.29159777612409
s(S'2918'
p1527
I2
tp1528
F3.677556684620336
s(S'3020'
p1529
I2
tp1530
F31.71017861476826
s(S'1726'
p1531
I1
tp1532
F-3.4712070197221534
s(S'1520'
p1533
I2
tp1534
F-19.97258760136498
s(S'2922'
p1535
I2
tp1536
F33.402597629601786
s(S'1120'
p1537
I0
tp1538
F30.413831125809097
s(S'3032'
p1539
I0
tp1540
F-159.659314018639
s(S'2632'
p1541
I1
tp1542
F-29.82
s(S'830'
p1543
I0
tp1544
F59.16704773108861
s(S'025'
p1545
I0
tp1546
F56.05809245764672
s(S'619'
p1547
I0
tp1548
F81.62544336768492
s(S'1229'
p1549
I0
tp1550
F49.74065628135625
s(S'228'
p1551
I1
tp1552
F54.81244815106519
s(S'927'
p1553
I0
tp1554
F56.382662947289035
s(S'2429'
p1555
I0
tp1556
F-37.72885511494562
s(S'2730'
p1557
I0
tp1558
F-85.29587656795462
s(S'2928'
p1559
I2
tp1560
F-9.012189028380261
s(S'1026'
p1561
I2
tp1562
F48.17340428826448
s(S'720'
p1563
I0
tp1564
F61.73265484467571
s(S'1019'
p1565
I0
tp1566
F38.83226765290996
s(S'2818'
p1567
I0
tp1568
I0
s(S'219'
p1569
I2
tp1570
F120.58683758230016
s(S'920'
p1571
I2
tp1572
F43.886171414898236
s(S'1423'
p1573
I1
tp1574
F38.487418556133704
s(S'1030'
p1575
I2
tp1576
F60.160092193587566
s(S'1628'
p1577
I0
tp1578
F21.27099408240917
s(S'618'
p1579
I0
tp1580
F104.87175277865732
s(S'726'
p1581
I0
tp1582
F57.499659342855665
s(S'226'
p1583
I2
tp1584
F60.75546305330938
s(S'2331'
p1585
I0
tp1586
F-12.610677043641557
s(S'1930'
p1587
I1
tp1588
F-21.63965160053361
s(S'2823'
p1589
I0
tp1590
F7.3339592500428585
s(S'1219'
p1591
I2
tp1592
F10.47793689232777
s(S'1426'
p1593
I2
tp1594
F2.1458799263180657
s(S'1623'
p1595
I1
tp1596
F-12.601592412101457
s(S'122'
p1597
I0
tp1598
F62.50738669727244
s(S'1922'
p1599
I2
tp1600
F1.784876212224
s(S'1924'
p1601
I1
tp1602
F4.027210386692485
s(S'1419'
p1603
I0
tp1604
F3.9160839685390125
s(S'2820'
p1605
I0
tp1606
F-32.06456238394493
s(S'2828'
p1607
I1
tp1608
F8.869208281843513
s(S'2122'
p1609
I2
tp1610
F1.0
s(S'325'
p1611
I2
tp1612
F60.63497211478486
s(S'1919'
p1613
I2
tp1614
F-4.816800814311204
s(S'428'
p1615
I2
tp1616
F61.50301321446864
s(S'3018'
p1617
I0
tp1618
I0
s(S'2328'
p1619
I1
tp1620
F-1.013182094827496
s(S'1530'
p1621
I0
tp1622
F37.12650764782428
s(S'629'
p1623
I1
tp1624
F60.13550296401911
s(S'1927'
p1625
I1
tp1626
F-4.841198534935161
s(S'531'
p1627
I1
tp1628
F47.71370977759921
s(S'1520'
p1629
I1
tp1630
F-0.2265339149526886
s(S'2421'
p1631
I1
tp1632
F3.4935781210264802
s(S'2121'
p1633
I2
tp1634
F-0.4834946078009361
s(S'617'
p1635
I0
tp1636
I0
s(S'1724'
p1637
I2
tp1638
F1.125033245955338
s(S'631'
p1639
I2
tp1640
F61.243358750807694
s(S'2924'
p1641
I1
tp1642
F9.92663786961574
s(S'831'
p1643
I2
tp1644
F57.50411325260169
s(S'2323'
p1645
I0
tp1646
F-0.2429959796250546
s(S'1325'
p1647
I0
tp1648
F23.547709072756128
s(S'2519'
p1649
I0
tp1650
F-16.499052596927278
s(S'1228'
p1651
I2
tp1652
F56.4455467044214
s(S'317'
p1653
I0
tp1654
I0
s(S'1317'
p1655
I1
tp1656
I2
s(S'931'
p1657
I0
tp1658
F56.97920342010222
s(S'2231'
p1659
I0
tp1660
F-35.403856393537524
s(S'2519'
p1661
I2
tp1662
F-25.92436883066671
s(S'3029'
p1663
I0
tp1664
F-1.7305191242833295
s(S'1721'
p1665
I1
tp1666
F-4.556699428329942
s(S'1022'
p1667
I1
tp1668
F28.920796162672435
s(S'129'
p1669
I0
tp1670
F43.40679565248516
s(S'2629'
p1671
I1
tp1672
F-11.627103626296442
s(S'1729'
p1673
I2
tp1674
F12.553290269218092
s(S'1929'
p1675
I2
tp1676
F-7.834378548908816
s(S'029'
p1677
I1
tp1678
F37.35816587880072
s(S'431'
p1679
I1
tp1680
F42.749385907906436
s(S'1222'
p1681
I2
tp1682
F6.404100556086657
s(S'018'
p1683
I2
tp1684
F190.476700012695
s(S'1031'
p1685
I0
tp1686
F55.24371357221707
s(S'2331'
p1687
I2
tp1688
F-24.291414796769313
s(S'619'
p1689
I2
tp1690
F103.49241839855054
s(S'2622'
p1691
I0
tp1692
F2.0558696871776205
s(S'1619'
p1693
I0
tp1694
F1.1236759263052296
s(S'430'
p1695
I0
tp1696
F57.478382222180876
s(S'2222'
p1697
I0
tp1698
F0.39228973831197694
s(S'225'
p1699
I0
tp1700
F56.33552109066715
s(S'1824'
p1701
I0
tp1702
F0.20072314623464038
s(S'2127'
p1703
I0
tp1704
F-0.9777091409769436
s(S'731'
p1705
I1
tp1706
F56.32824324235507
s(S'1529'
p1707
I1
tp1708
F51.30102277331712
s(S'123'
p1709
I2
tp1710
F65.48441667510767
s(S'1826'
p1711
I1
tp1712
F6.449082128383531
s(S'1621'
p1713
I2
tp1714
F15.957362099005465
s(S'1923'
p1715
I0
tp1716
F-0.2241453264115996
s(S'1230'
p1717
I2
tp1718
F53.179697327907725
s(S'2729'
p1719
I2
tp1720
F-27.240398534339093
s(S'2520'
p1721
I2
tp1722
F12.220973908506927
s(S'1630'
p1723
I2
tp1724
F9.019076694893421
s(S'3022'
p1725
I0
tp1726
F28.88983124772992
s(S'2425'
p1727
I1
tp1728
F0.8460848332907234
s(S'3019'
p1729
I2
tp1730
F49.50257566730366
s(S'1429'
p1731
I1
tp1732
F57.01892345062256
s(S'1617'
p1733
I1
tp1734
I2
s(S'828'
p1735
I0
tp1736
F60.71619461670158
s(S'1624'
p1737
I1
tp1738
F20.772416931435444
s(S'1119'
p1739
I0
tp1740
F9.264442715822813
s(S'2724'
p1741
I1
tp1742
F10.475020044683276
s(S'218'
p1743
I1
tp1744
F185.71524657077015
s(S'2124'
p1745
I1
tp1746
F1.410277208058664
s(S'1725'
p1747
I0
tp1748
F-1.1483981344503156
s(S'3026'
p1749
I2
tp1750
F30.954375702006196
s(S'2927'
p1751
I1
tp1752
F12.585646143658504
s(S'1123'
p1753
I1
tp1754
F58.19115419260508
s(S'419'
p1755
I2
tp1756
F133.13671318191217
s(S'2021'
p1757
I1
tp1758
F4.050527883401704
s(S'930'
p1759
I2
tp1760
F58.93033500675377
s(S'026'
p1761
I1
tp1762
F50.3793912998104
s(S'622'
p1763
I1
tp1764
F69.69749324341493
s(S'3028'
p1765
I2
tp1766
F-22.513043765289275
s(S'2429'
p1767
I2
tp1768
F-27.037434427213164
s(S'2031'
p1769
I2
tp1770
F-94.62852048691926
s(S'2126'
p1771
I0
tp1772
F0.48728298700684125
s(S'1629'
p1773
I1
tp1774
F46.181077241461814
s(S'2226'
p1775
I1
tp1776
F-4.075299226682981
s(S'030'
p1777
I0
tp1778
F51.47946272855748
s(S'1023'
p1779
I1
tp1780
F57.69142363026383
s(S'728'
p1781
I2
tp1782
F61.700006219501844
s(S'2818'
p1783
I1
tp1784
F3.6823960825646105
s(S'625'
p1785
I0
tp1786
F57.871663544242864
s(S'2624'
p1787
I0
tp1788
F-19.831258675927543
s(S'2024'
p1789
I1
tp1790
F-10.790823828814226
s(S'1023'
p1791
I0
tp1792
F30.954144135026326
s(S'420'
p1793
I0
tp1794
F95.69338634407187
s(S'719'
p1795
I2
tp1796
F69.56750972086913
s(S'2821'
p1797
I2
tp1798
F-0.7573288568809695
s(S'2930'
p1799
I0
tp1800
F-26.640913296211664
s(S'1328'
p1801
I1
tp1802
F61.50953800332008
s(S'821'
p1803
I0
tp1804
F25.583479296514383
s(S'1221'
p1805
I2
tp1806
F6.643391922517195
s(S'1618'
p1807
I0
tp1808
F60.309992511369344
s(S'224'
p1809
I2
tp1810
F60.910822002988446
s(S'725'
p1811
I1
tp1812
F61.88365921805085
s(S'928'
p1813
I0
tp1814
F58.8520468208232
s(S'1818'
p1815
I0
tp1816
F33.34158492506717
s(S'1524'
p1817
I1
tp1818
F3.1764506000612442
s(S'427'
p1819
I1
tp1820
F57.865746251852336
s(S'1821'
p1821
I1
tp1822
F12.539032571350596
s(S'2128'
p1823
I1
tp1824
F8.832825358641493
s(S'327'
p1825
I0
tp1826
F59.75852519423039
s(S'1620'
p1827
I0
tp1828
F-54.11294606312491
s(S'1924'
p1829
I2
tp1830
F-3.9657391171976784
s(S'2728'
p1831
I0
tp1832
F-29.413652913529017
s(S'2523'
p1833
I0
tp1834
I1
s(S'2622'
p1835
I2
tp1836
F-25.912634349364204
s(S'1527'
p1837
I2
tp1838
F11.410689778100869
s(S'1919'
p1839
I0
tp1840
F2.057153051624973
s(S'2131'
p1841
I2
tp1842
F-76.48463007985308
s(S'119'
p1843
I0
tp1844
F124.38493135238171
s(S'019'
p1845
I2
tp1846
F140.31673689771318
s(S'2419'
p1847
I2
tp1848
F-2.9834312323471828
s(S'1327'
p1849
I2
tp1850
F35.626346013752794
s(S'1017'
p1851
I0
tp1852
I0
s(S'1722'
p1853
I2
tp1854
F-48.50112238682481
s(S'431'
p1855
I2
tp1856
F60.7106130537298
s(S'926'
p1857
I0
tp1858
F54.01303896836204
s(S'1818'
p1859
I2
tp1860
F-32.53149141858897
s(S'1518'
p1861
I2
tp1862
F37.83151154972446
s(S'2119'
p1863
I0
tp1864
F-1.186054357748426
s(S'2320'
p1865
I1
tp1866
F-129.3765472
s(S'021'
p1867
I1
tp1868
F59.0984300690956
s(S'2822'
p1869
I1
tp1870
F3.1061562307677333
s(S'231'
p1871
I0
tp1872
F18.731185574581342
s(S'928'
p1873
I2
tp1874
F58.82868293856524
s(S'524'
p1875
I1
tp1876
F60.965426903999905
s(S'2028'
p1877
I2
tp1878
F-0.4025167294118379
s(S'3032'
p1879
I1
tp1880
F-157.642635851883
s(S'2232'
p1881
I1
tp1882
F-115.9475492101271
s(S'2030'
p1883
I0
tp1884
F-25.92283127331225
s(S'2825'
p1885
I1
tp1886
F8.458617709039006
s(S'825'
p1887
I1
tp1888
F61.01822075632645
s(S'1629'
p1889
I0
tp1890
F29.991337615804447
s(S'031'
p1891
I2
tp1892
F-56.9520960935851
s(S'729'
p1893
I0
tp1894
F60.133996451558936
s(S'624'
p1895
I2
tp1896
F56.63379239223063
s(S'2224'
p1897
I2
tp1898
F-1.462349156491487
s(S'217'
p1899
I2
tp1900
F49.7271881644783
s(S'1330'
p1901
I1
tp1902
F54.13654070275057
s(S'425'
p1903
I2
tp1904
F62.011736464956535
s(S'2330'
p1905
I0
tp1906
F-55.87143062362507
s(S'718'
p1907
I0
tp1908
F112.71313316797007
s(S'1730'
p1909
I1
tp1910
F28.301961250518726
s(S'2931'
p1911
I2
tp1912
F-138.81230560468438
s(S'1729'
p1913
I1
tp1914
F27.68426564011127
s(S'121'
p1915
I0
tp1916
F73.498531126885
s(S'2621'
p1917
I1
tp1918
F-11.946486913500298
s(S'722'
p1919
I1
tp1920
F69.28860215446079
s(S'2527'
p1921
I1
tp1922
F2.441645494143311
s(S'2221'
p1923
I1
tp1924
F-1.155175085761278
s(S'1921'
p1925
I2
tp1926
F-1.5334577634750408
s(S'222'
p1927
I1
tp1928
F63.00435142039713
s(S'1932'
p1929
I0
tp1930
F-38.32880000000001
s(S'2127'
p1931
I2
tp1932
F0.03265174849226038
s(S'3018'
p1933
I1
tp1934
F4.797163488727634
s(S'2023'
p1935
I1
tp1936
F-1.0220351201784892
s(S'1627'
p1937
I2
tp1938
F0.6331392213401053
s(S'126'
p1939
I1
tp1940
F54.95070148590198
s(S'1823'
p1941
I2
tp1942
F2.7239637573003117
s(S'1531'
p1943
I0
tp1944
F12.289755653722834
s(S'2522'
p1945
I2
tp1946
F4.799232469881679
s(S'1131'
p1947
I2
tp1948
F42.004954862772664
s(S'318'
p1949
I2
tp1950
F173.06847233999068
s(S'2428'
p1951
I1
tp1952
F-0.7973098450376872
s(S'2420'
p1953
I0
tp1954
F-29.82833478673339
s(S'1120'
p1955
I2
tp1956
F18.94603513353711
s(S'922'
p1957
I1
tp1958
F67.91402191640194
s(S'925'
p1959
I2
tp1960
F47.83106403533614
s(S'1727'
p1961
I2
tp1962
F-1.1564466947422636
s(S'918'
p1963
I1
tp1964
F181.1666560527426
s(S'1430'
p1965
I1
tp1966
F58.77099708459309
s(S'517'
p1967
I2
tp1968
F47.4625554085432
s(S'025'
p1969
I2
tp1970
F62.46423511522567
s(S'528'
p1971
I2
tp1972
F61.804333511082625
s(S'2121'
p1973
I0
tp1974
F-31.139620502795985
s(S'927'
p1975
I2
tp1976
F56.805267968143625
s(S'1830'
p1977
I2
tp1978
F-15.413070343464334
s(S'2730'
p1979
I2
tp1980
F-43.26665068426168
s(S'2928'
p1981
I0
tp1982
F-13.91357174605078
s(S'1126'
p1983
I2
tp1984
F41.78658138216919
s(S'2124'
p1985
I2
tp1986
F-60.0279298903356
s(S'2819'
p1987
I2
tp1988
F-0.7714878426709006
s(S'621'
p1989
I0
tp1990
F69.45577833991217
s(S'023'
p1991
I2
tp1992
F62.77229994706292
s(S'2826'
p1993
I1
tp1994
F4.77646338764189
s(S'526'
p1995
I2
tp1996
F58.85959193269469
s(S'1030'
p1997
I0
tp1998
F58.41026949383161
s(S'1628'
p1999
I2
tp2000
F16.06229208357142
s(S'726'
p2001
I2
tp2002
F57.4855731307338
s(S'827'
p2003
I2
tp2004
F57.84236284082634
s(S'2225'
p2005
I0
tp2006
F-3.1493600608991774
s(S'2423'
p2007
I2
tp2008
F8.592074605176366
s(S'226'
p2009
I0
tp2010
F57.44007055454016
s(S'1822'
p2011
I2
tp2012
F4.521042486792671
s(S'2823'
p2013
I2
tp2014
F19.090216452500233
s(S'523'
p2015
I1
tp2016
F65.63407118804703
s(S'2027'
p2017
I0
tp2018
F1.3638584686426647
s(S'2626'
p2019
I1
tp2020
F-4.918664936500978
s(S'2721'
p2021
I1
tp2022
F3.8811831179219602
s(S'822'
p2023
I1
tp2024
F68.45035543094937
s(S'1622'
p2025
I2
tp2026
F0.07573881823919626
s(S'1922'
p2027
I0
tp2028
F3.7078051959589877
s(S'221'
p2029
I1
tp2030
F72.15112053122851
s(S'720'
p2031
I2
tp2032
F64.57577524337242
s(S'2723'
p2033
I2
tp2034
F-123.65197873279786
s(S'331'
p2035
I1
tp2036
F25.75287749476884
s(S'3023'
p2037
I0
tp2038
F19.990899732691773
s(S'1519'
p2039
I1
tp2040
F6.830161460674672
s(S'1525'
p2041
I0
tp2042
F7.347519040115499
s(S'2921'
p2043
I0
tp2044
F6.420994011822314
s(S'2829'
p2045
I2
tp2046
F-108.49327944412599
s(S'1918'
p2047
I1
tp2048
F38.42121721552585
s(S'1530'
p2049
I2
tp2050
F26.85689516723506
s(S'829'
p2051
I0
tp2052
F60.503035566321856
s(S'1130'
p2053
I0
tp2054
F58.29151786158445
s(S'2418'
p2055
I0
tp2056
F-51.9307518505035
s(S'028'
p2057
I2
tp2058
F60.327272690834654
s(S'529'
p2059
I0
tp2060
F59.23125347551617
s(S'2329'
p2061
I0
tp2062
F-25.38271148366709
s(S'2532'
p2063
I1
tp2064
I-198
s(S'2131'
p2065
I0
tp2066
F-74.85417390079412
s(S'631'
p2067
I0
tp2068
F57.67509650051357
s(S'1829'
p2069
I1
tp2070
F-5.267526358424541
s(S'1323'
p2071
I0
tp2072
F15.574450357247052
s(S'1325'
p2073
I2
tp2074
F13.84604437728134
s(S'317'
p2075
I2
tp2076
F50.86398570338131
s(S'1025'
p2077
I0
tp2078
F41.96982904285809
s(S'2231'
p2079
I2
tp2080
F-57.12650330012964
s(S'1518'
p2081
I0
tp2082
F44.78449361275068
s(S'2319'
p2083
I1
tp2084
F-33.1925583371615
s(S'1831'
p2085
I0
tp2086
F-29.182742313218828
s(S'718'
p2087
I1
tp2088
F187.12368139698393
s(S'1127'
p2089
I0
tp2090
F49.99941958277114
s(S'929'
p2091
I1
tp2092
F62.10549169871629
s(S'2321'
p2093
I0
tp2094
F-38.245572573627825
s(S'328'
p2095
I2
tp2096
F60.98806640498746
s(S'1825'
p2097
I1
tp2098
F0.15431165148416204
s(S'1929'
p2099
I0
tp2100
F-8.539073498572197
s(S'2325'
p2101
I2
tp2102
F5.926475689314196
s(S'022'
p2103
I0
tp2104
F27.8480211394664
s(S'626'
p2105
I0
tp2106
F58.174025367620395
s(S'319'
p2107
I2
tp2108
F120.66707285241415
s(S'527'
p2109
I0
tp2110
F58.423711932182165
s(S'1031'
p2111
I2
tp2112
F55.20677396795082
s(S'421'
p2113
I0
tp2114
F72.91037345423281
s(S'2619'
p2115
I0
tp2116
F-50.595817681765105
s(S'1329'
p2117
I2
tp2118
F46.940334656811835
s(S'1619'
p2119
I2
tp2120
F3.438907379656562
s(S'1425'
p2121
I0
tp2122
F35.45999784006355
s(S'826'
p2123
I0
tp2124
F56.02425294145932
s(S'2222'
p2125
I2
tp2126
F10.715687225411514
s(S'2021'
p2127
I2
tp2128
F5.5868880235267335
s(S'2731'
p2129
I0
tp2130
F-68.61452914117467
s(S'2628'
p2131
I0
tp2132
F0.6571972781454767
s(S'3027'
p2133
I1
tp2134
F15.231500365404417
s(S'2020'
p2135
I2
tp2136
F2.5204099337586556
s(S'621'
p2137
I2
tp2138
F55.715449765026484
s(S'2332'
p2139
I2
tp2140
F11.068549860315267
s(S'1419'
p2141
I1
tp2142
F28.430794362104837
s(S'326'
p2143
I0
tp2144
F57.26149499274961
s(S'730'
p2145
I2
tp2146
F61.502316131828394
s(S'032'
p2147
I1
tp2148
F-45.3836982971385
s(S'1923'
p2149
I2
tp2150
F4.736717426159585
s(S'2624'
p2151
I2
tp2152
F16.33495212557907
s(S'721'
p2153
I0
tp2154
F76.30239710346447
s(S'2729'
p2155
I0
tp2156
F-40.38847799230709
s(S'2520'
p2157
I0
tp2158
F1.5866207255861966
s(S'1021'
p2159
I2
tp2160
F10.01429651095923
s(S'1231'
p2161
I1
tp2162
F46.128362154622536
s(S'722'
p2163
I0
tp2164
F53.2562022669967
s(S'817'
p2165
I0
tp2166
I1
s(S'1631'
p2167
I1
tp2168
F-25.016516722318485
s(S'1727'
p2169
I1
tp2170
F25.761131091190165
s(S'2630'
p2171
I1
tp2172
F-67.43443581577576
s(S'1029'
p2173
I1
tp2174
F62.117350762594555
s(S'918'
p2175
I0
tp2176
F74.53926559477468
s(S'424'
p2177
I1
tp2178
F59.55707461540474
s(S'627'
p2179
I1
tp2180
F61.85259506415091
s(S'1725'
p2181
I2
tp2182
F-6.427794809315905
s(S'2229'
p2183
I1
tp2184
F-4.68952155044011
s(S'018'
p2185
I0
tp2186
F177.44428291876568
s(S'519'
p2187
I2
tp2188
F112.18127654027472
s(S'2123'
p2189
I1
tp2190
F3.5974557754767416
s(S'2530'
p2191
I2
tp2192
F-78.57277759174029
s(S'1319'
p2193
I1
tp2194
F12.947993826749386
s(S'2118'
p2195
I0
tp2196
F-50.31222157793302
s(S'1119'
p2197
I2
tp2198
F13.663573631078947
s(S'1719'
p2199
I1
tp2200
F-29.870949052544063
s(S'230'
p2201
I0
tp2202
F57.74379280580587
s(S'818'
p2203
I2
tp2204
F104.47606383594866
s(S'1024'
p2205
I0
tp2206
F42.27590087016306
s(S'2031'
p2207
I0
tp2208
F-47.69728928411925
s(S'2126'
p2209
I2
tp2210
F-2.0842304418613615
s(S'2431'
p2211
I2
tp2212
F-103.1863310537683
s(S'329'
p2213
I0
tp2214
F58.320210725901184
s(S'2831'
p2215
I1
tp2216
F-109.50557449410624
s(S'2324'
p2217
I0
tp2218
F3.4953848186059635
s(S'728'
p2219
I0
tp2220
F59.73766206835136
s(S'2529'
p2221
I0
tp2222
F-19.633773493691194
s(S'2227'
p2223
I2
tp2224
F2.8166349647444795
s(S'1018'
p2225
I2
tp2226
F108.4866372850843
s(S'2130'
p2227
I1
tp2228
F-38.73472643469457
s(S'719'
p2229
I0
tp2230
F83.95101454140598
s(S'2821'
p2231
I0
tp2232
F-122.74612870213033
s(S'2719'
p2233
I2
tp2234
F-110.08311911452421
s(S'2025'
p2235
I2
tp2236
F-0.6595749307559068
s(S'821'
p2237
I2
tp2238
F48.390121118810384
s(S'120'
p2239
I0
tp2240
F99.47663678615494
s(S'925'
p2241
I0
tp2242
F49.109111246197756
s(S'1022'
p2243
I0
tp2244
F46.72357574575541
s(S'3025'
p2245
I2
tp2246
F41.20868494786563
s(S'1620'
p2247
I2
tp2248
F-46.2084789105069
s(S'2625'
p2249
I0
tp2250
F1.4615251206375246
s(S'2728'
p2251
I2
tp2252
F-29.097946696002158
s(S'1528'
p2253
I2
tp2254
F21.808197153278797
s(S'131'
p2255
I0
tp2256
F11.866595516811085
s(S'1925'
p2257
I1
tp2258
F3.9324656949955594
s(S'1220'
p2259
I1
tp2260
F59.93493387817228
s(S'2526'
p2261
I1
tp2262
F-11.0403193408495
s(S'1418'
p2263
I0
tp2264
F13.89890446321564
s(S'1632'
p2265
I1
tp2266
I1
s(S'3020'
p2267
I1
tp2268
F19.308772756054374
s(S'119'
p2269
I2
tp2270
F114.82076438685411
s(S'019'
p2271
I0
tp2272
F107.88761721945423
s(S'2922'
p2273
I1
tp2274
F3.6764184534640383
s(S'1319'
p2275
I2
tp2276
F-7.76807165249489
s(S'131'
p2277
I1
tp2278
F4.645782501373837
s(S'1327'
p2279
I0
tp2280
F36.21686793647936
s(S'1019'
p2281
I1
tp2282
F98.82711342145926
s(S'2918'
p2283
I0
tp2284
I-200
s(S'229'
p2285
I1
tp2286
F54.05039394331605
s(S'2722'
p2287
I2
tp2288
F16.23101522378516
s(S'1728'
p2289
I1
tp2290
F40.24652621863178
s(S'1720'
p2291
I0
tp2292
F-36.004731299705554
s(S'2531'
p2293
I0
tp2294
F-103.72736733887218
s(S'1723'
p2295
I1
tp2296
F8.22408961083534
s(S'2929'
p2297
I0
tp2298
F-54.49483257753596
s(S'1125'
p2299
I2
tp2300
F27.099830587989388
s(S'1526'
p2301
I0
tp2302
F12.306848755153936
s(S'1026'
p2303
I1
tp2304
F59.28484394361434
s(S'1525'
p2305
I2
tp2306
F5.066457962897646
s(S'2920'
p2307
I0
tp2308
F5.160646610886477
s(S'2030'
p2309
I2
tp2310
F-35.01443601553412
s(S'2727'
p2311
I1
tp2312
F4.2846243463117055
s(S'2430'
p2313
I0
tp2314
F-42.660944563099804
s(S'2029'
p2315
I1
tp2316
F5.800457025343102
s(S'3021'
p2317
I2
tp2318
F45.577713456086684
s(S'729'
p2319
I2
tp2320
F60.955053459247935
s(S'1423'
p2321
I2
tp2322
F5.828088143353036
s(S'824'
p2323
I2
tp2324
F50.773628658770996
s(S'2224'
p2325
I0
tp2326
F3.545766374997443
s(S'227'
p2327
I0
tp2328
F57.284907968659574
s(S'1025'
p2329
I1
tp2330
F59.911227889804486
s(S'2330'
p2331
I2
tp2332
F-38.97277869223174
s(S'1931'
p2333
I1
tp2334
F-62.75932237361887
s(S'330'
p2335
I1
tp2336
F50.900583371735756
s(S'422'
p2337
I1
tp2338
F71.1280957008537
s(S'1819'
p2339
I2
tp2340
F3.245622986097016
s(S'1824'
p2341
I1
tp2342
F-7.487891601322888
s(S'1426'
p2343
I1
tp2344
F37.249623864756586
s(S'1921'
p2345
I0
tp2346
F2.2712098022482086
s(S'723'
p2347
I2
tp2348
F52.747508393421455
s(S'1418'
p2349
I2
tp2350
F40.75031889697853
s(S'1128'
p2351
I2
tp2352
F53.66379564523214
s(S'3024'
p2353
I0
tp2354
F25.69244031850072
s(S'2919'
p2355
I2
tp2356
F-150.3978539164609
s(S'1524'
p2357
I0
tp2358
F5.844698965560918
s(S'626'
p2359
I2
tp2360
F57.969065444474516
s(S'2329'
p2361
I1
tp2362
F0.3374306408015142
s(S'325'
p2363
I1
tp2364
F59.271976814061304
s(S'1131'
p2365
I0
tp2366
F55.98899471428196
s(S'1926'
p2367
I1
tp2368
F3.8356718553117215
s(S'1021'
p2369
I0
tp2370
F34.56185268110859
s(S'2726'
p2371
I1
tp2372
F8.1244203384696
s(S'629'
p2373
I2
tp2374
F61.89329509074772
s(S'1421'
p2375
I1
tp2376
F32.00174624620776
s(S'1727'
p2377
I0
tp2378
F4.932409888077544
s(S'630'
p2379
I0
tp2380
F60.28656985070218
s(S'2925'
p2381
I1
tp2382
F11.495442652200783
s(S'1121'
p2383
I1
tp2384
F26.696139612058573
s(S'1428'
p2385
I2
tp2386
F35.93287787974281
s(S'1521'
p2387
I2
tp2388
F-53.960557046278
s(S'1320'
p2389
I2
tp2390
F-0.28736137108675397
s(S'831'
p2391
I1
tp2392
F58.93408142637799
s(S'024'
p2393
I1
tp2394
F58.15456294426277
s(S'1228'
p2395
I1
tp2396
F62.16308543575501
s(S'1017'
p2397
I1
tp2398
F26.209374328674976
s(S'1830'
p2399
I0
tp2400
F-23.56169934442032
s(S'1720'
p2401
I1
tp2402
F-39.545741639052906
s(S'128'
p2403
I2
tp2404
F59.924412385937615
s(S'2628'
p2405
I1
tp2406
F-1.4361869931652906
s(S'3025'
p2407
I0
tp2408
F27.43356394205114
s(S'531'
p2409
I2
tp2410
F60.997707999811645
s(S'2731'
p2411
I1
tp2412
F-46.90818533145318
s(S'032'
p2413
I0
tp2414
F-137.1040381833017
s(S'1021'
p2415
I1
tp2416
F61.966145970426865
s(S'023'
p2417
I0
tp2418
F21.04780250686963
s(S'1223'
p2419
I0
tp2420
F28.189222671318177
s(S'526'
p2421
I0
tp2422
F57.2819866627739
s(S'322'
p2423
I2
tp2424
F65.90813747420721
s(S'2932'
p2425
I0
tp2426
F-34.120000000000005
s(S'1422'
p2427
I0
tp2428
F9.23850822691511
s(S'827'
p2429
I0
tp2430
F55.5478067997952
s(S'2225'
p2431
I2
tp2432
F2.1410439856212222
s(S'619'
p2433
I1
tp2434
F142.91891479611405
s(S'727'
p2435
I1
tp2436
F60.92513799248167
s(S'318'
p2437
I0
tp2438
F173.68930384816477
s(S'2027'
p2439
I2
tp2440
F-4.475346161483574
s(S'519'
p2441
I0
tp2442
F117.21738157307892
s(S'425'
p2443
I1
tp2444
F58.504019002615024
s(S'1820'
p2445
I0
tp2446
F-39.775960358767094
s(S'1827'
p2447
I1
tp2448
F11.227934021835251
s(S'520'
p2449
I2
tp2450
F79.29204192743798
s(S'321'
p2451
I0
tp2452
F80.42413561305347
s(S'528'
p2453
I1
tp2454
F58.48987722048536
s(S'1622'
p2455
I0
tp2456
F0.34189616
s(S'220'
p2457
I1
tp2458
F103.8558630042677
s(S'2627'
p2459
I2
tp2460
F7.735037521719433
s(S'919'
p2461
I1
tp2462
F92.13574400213666
s(S'2521'
p2463
I0
tp2464
F3.8922619593142955
s(S'2924'
p2465
I2
tp2466
F32.42484899294665
s(S'3023'
p2467
I2
tp2468
F26.169634958552592
s(S'2019'
p2469
I2
tp2470
F5.746363211135263
s(S'1117'
p2471
I2
tp2472
F21.861527061927617
s(S'2424'
p2473
I1
tp2474
F-98.61232840832558
s(S'2921'
p2475
I2
tp2476
F18.463512156680526
s(S'2829'
p2477
I0
tp2478
F-30.73308321031712
s(S'131'
p2479
I2
tp2480
F34.56956095543255
s(S'829'
p2481
I2
tp2482
F60.67756265565511
s(S'1130'
p2483
I2
tp2484
F57.61772420500195
s(S'3019'
p2485
I1
tp2486
F-4.566322041834418
s(S'028'
p2487
I0
tp2488
F42.98601756603955
s(S'628'
p2489
I0
tp2490
F57.9293466853733
s(S'2323'
p2491
I1
tp2492
F0.8963538152859264
s(S'418'
p2493
I1
tp2494
F165.36607276507866
s(S'530'
p2495
I0
tp2496
F58.75837620657834
s(S'1519'
p2497
I2
tp2498
F-15.956967762730667
s(S'924'
p2499
I0
tp2500
F45.871570551795834
s(S'1329'
p2501
I1
tp2502
F60.9444865322827
s(S'2927'
p2503
I2
tp2504
F17.65237741651463
s(S'1828'
p2505
I2
tp2506
F8.41288824994595
s(S'1025'
p2507
I2
tp2508
F49.23324526016874
s(S'027'
p2509
I1
tp2510
F52.12625457099955
s(S'1823'
p2511
I0
tp2512
F1.1517986595367655
s(S'1227'
p2513
I1
tp2514
F56.84607090828001
s(S'322'
p2515
I1
tp2516
F68.9965549175658
s(S'1831'
p2517
I2
tp2518
F-20.83162321498703
s(S'930'
p2519
I1
tp2520
F61.827632722387044
s(S'3030'
p2521
I1
tp2522
F-32.68655619962621
s(S'2230'
p2523
I1
tp2524
F-8.603427520297704
s(S'1127'
p2525
I2
tp2526
F46.812409494864596
s(S'3028'
p2527
I1
tp2528
F13.177511885338447
s(S'2432'
p2529
I2
tp2530
F10.163174926482494
s(S'328'
p2531
I0
tp2532
F54.00713684345563
s(S'2732'
p2533
I1
tp2534
F-138.02509911435274
s(S'1526'
p2535
I2
tp2536
F7.749125046527656
s(S'2325'
p2537
I0
tp2538
F-14.570327246127894
s(S'022'
p2539
I2
tp2540
F68.73458875355642
s(S'1226'
p2541
I1
tp2542
F52.825944606294556
s(S'319'
p2543
I0
tp2544
F125.3843202112823
s(S'527'
p2545
I2
tp2546
F60.96428299403144
s(S'1023'
p2547
I2
tp2548
F41.23464506920632
s(S'421'
p2549
I2
tp2550
F70.18678344692415
s(S'422'
p2551
I2
tp2552
F63.278793902486946
s(S'1425'
p2553
I2
tp2554
F18.47534382899039
s(S'826'
p2555
I2
tp2556
F56.05882273410295
s(S'2327'
p2557
I0
tp2558
F-18.45743909504394
s(S'2623'
p2559
I1
tp2560
F5.224399382185846
s(S'724'
p2561
I1
tp2562
F61.447485521050595
s(S'1328'
p2563
I2
tp2564
F38.62144794807784
s(S'2525'
p2565
I1
tp2566
F1.650307069963716
s(S'2223'
p2567
I1
tp2568
F-35.96750487568352
s(S'2120'
p2569
I1
tp2570
F-0.5235603049681408
s(S'224'
p2571
I1
tp2572
F57.80726956282255
s(S'2420'
p2573
I2
tp2574
F-13.90382154421193
s(S'3031'
p2575
I1
tp2576
F-72.67075577546645
s(S'2129'
p2577
I1
tp2578
F-53.42069774395226
s(S'326'
p2579
I2
tp2580
F61.5043022856149
s(S'730'
p2581
I0
tp2582
F60.552756746049496
s(S'1528'
p2583
I0
tp2584
F13.503752821255613
s(S'124'
p2585
I1
tp2586
F57.46421929524285
s(S'1224'
p2587
I2
tp2588
F10.621616943851238
s(S'721'
p2589
I2
tp2590
F49.00275180411168
s(S'2120'
p2591
I2
tp2592
F0.7351039682023783
s(S'1128'
p2593
I0
tp2594
F56.594987703367934
s(S'817'
p2595
I2
tp2596
F8.68293320277505
s(S'1827'
p2597
I0
tp2598
F-1.2075108072627991
s(S'130'
p2599
I0
tp2600
F32.72898698294976
s(S'1320'
p2601
I1
tp2602
F25.790740149118683
s(S'1527'
p2603
I1
tp2604
F28.881143313380658
s(S'525'
p2605
I0
tp2606
F56.17126760310398
s(S'1326'
p2607
I0
tp2608
F15.288038065044741
s(S'1018'
p2609
I1
tp2610
F64.47541532689281
s(S'1028'
p2611
I2
tp2612
F59.07109009010222
s(S'2530'
p2613
I0
tp2614
F-98.75217840532204
s(S'2926'
p2615
I0
tp2616
F4.537840848627397
s(S'518'
p2617
I1
tp2618
F204.0695038424491
s(S'2321'
p2619
I1
tp2620
F4.99438138098791
s(S'230'
p2621
I2
tp2622
F47.60746150262672
s(S'519'
p2623
I1
tp2624
F143.0552396088571
s(S'1118'
p2625
I1
tp2626
F50.25950020604534
s(S'1225'
p2627
I2
tp2628
F24.025678196425492
s(S'2824'
p2629
I1
tp2630
F7.765883852365706
s(S'2431'
p2631
I0
tp2632
F-95.09024321916317
s(S'329'
p2633
I2
tp2634
F59.67240901816313
s(S'3032'
p2635
I2
tp2636
F-170.88570366893316
s(S'1129'
p2637
I1
tp2638
F62.585423656832496
s(S'2324'
p2639
I2
tp2640
F-16.1414034829811
s(S'1218'
p2641
I1
tp2642
F143.4610985084619
s(S'1420'
p2643
I2
tp2644
F-15.73803776155127
s(S'2529'
p2645
I2
tp2646
F-59.65680641531425
s(S'2227'
p2647
I0
tp2648
F3.244595373800971
s(S'031'
p2649
I1
tp2650
F-82.21163183078907
s(S'1331'
p2651
I1
tp2652
F53.362819188355004
s(S'624'
p2653
I1
tp2654
F61.56507345665375
s(S'1731'
p2655
I1
tp2656
F-32.90887561100112
s(S'521'
p2657
I1
tp2658
F84.17434251902945
s(S'2025'
p2659
I0
tp2660
F-18.181241208075384
s(S'427'
p2661
I2
tp2662
F61.32270718503416
s(S'2422'
p2663
I1
tp2664
F-0.27131670339137637
s(S'2620'
p2665
I1
tp2666
F-17.057026040423843
s(S'2931'
p2667
I1
tp2668
F-48.691176760822586
s(S'1329'
p2669
I0
tp2670
F46.49432598942428
s(S'820'
p2671
I1
tp2672
F92.9036678565211
s(S'2220'
p2673
I1
tp2674
F-18.321649428010446
s(S'1920'
p2675
I0
tp2676
F-19.87733500440854
s(S'223'
p2677
I1
tp2678
F56.055797749629086
s(S'1417'
p2679
I2
tp2680
I2
s(S'2527'
p2681
I2
tp2682
F8.376369670912966
s(S'1820'
p2683
I2
tp2684
F0.3148459717467049
s(S'2022'
p2685
I1
tp2686
F1.9189078675752862
s(S'520'
p2687
I0
tp2688
F96.16106811296743
s(S'426'
p2689
I0
tp2690
F57.092035599386875
s(S'2625'
p2691
I2
tp2692
F5.104425511942917
s(S'1322'
p2693
I1
tp2694
F40.27330483011969
s(S'126'
p2695
I2
tp2696
F60.93752385402403
s(S'2132'
p2697
I2
tp2698
I1
s(S'2025'
p2699
I1
tp2700
F-100.6782158809229
s(S'819'
p2701
I0
tp2702
F108.48482691147244
s(S'2522'
p2703
I1
tp2704
F-21.724775278116006
s(S'717'
p2705
I1
tp2706
F31.38889881424469
s(S'1726'
p2707
I0
tp2708
F0.9949795062810107
s(S'2427'
p2709
I0
tp2710
F1.859284883711882
s(S'819'
p2711
I1
tp2712
F34.023764340073235
s(S'623'
p2713
I2
tp2714
F60.039848241242716
s(S'118'
p2715
I1
tp2716
F173.25098511975438
s(S'1430'
p2717
I2
tp2718
F37.70991716057445
s(S'2722'
p2719
I0
tp2720
F2.8248067500161014
s(S'2531'
p2721
I2
tp2722
F-63.0513588928052
s(S'2125'
p2723
I0
tp2724
F-11.455602587766565
s(S'2929'
p2725
I2
tp2726
F-38.837950681048696
s(S'1125'
p2727
I0
tp2728
F26.068029989695628
s(S'927'
p2729
I1
tp2730
F61.57972010259297
s.