(dp0
(S'1424'
p1
I0
tp2
F0.7787019348317905
s(S'1224'
p3
I0
tp4
F-61.12188843901734
s(S'2430'
p5
I2
tp6
F-27.411331906082196
s(S'1222'
p7
I0
tp8
F-33.26479296169964
s(S'1624'
p9
I0
tp10
F2.7004221507813213
s(S'2826'
p11
I2
tp12
I1
s(S'1423'
p13
I0
tp14
F-7.940295917993798
s(S'824'
p15
I0
tp16
F-9.219605621958248
s(S'1628'
p17
I1
tp18
F44.834290705759265
s(S'2425'
p19
I0
tp20
F-32.92888451447624
s(S'2331'
p21
I1
tp22
F-18.475362343490733
s(S'1819'
p23
I0
tp24
F-35.321424280227504
s(S'2823'
p25
I1
tp26
F-33.2291589419756
s(S'1623'
p27
I0
tp28
F-12.252613061771502
s(S'723'
p29
I0
tp30
F-17.880787517684592
s(S'2725'
p31
I0
tp32
F12.398755555718267
s(S'2526'
p33
I0
tp34
F-26.382825053875152
s(S'3024'
p35
I2
tp36
F33.51314319695214
s(S'424'
p37
I1
tp38
F-0.9102113356279062
s(S'1524'
p39
I2
tp40
F-35.365981958876375
s(S'2828'
p41
I0
tp42
F-107.66806976807602
s(S'132'
p43
I2
tp44
F8.968622236456152
s(S'029'
p45
I0
tp46
F-66.572590353115
s(S'1827'
p47
I2
tp48
F3.8060183982700746
s(S'630'
p49
I2
tp50
F54.80484349929617
s(S'923'
p51
I0
tp52
F-22.897726135541703
s(S'1522'
p53
I2
tp54
F-0.03196664915909908
s(S'2924'
p55
I2
tp56
F29.094396435565102
s(S'2024'
p57
I0
tp58
F-31.774884276589418
s(S'1325'
p59
I1
tp60
F25.957089073967868
s(S'1519'
p61
I2
tp62
F-17.458954348227287
s(S'2421'
p63
I0
tp64
F-35.44484221258891
s(S'1219'
p65
I1
tp66
F-4.811540480000001
s(S'032'
p67
I2
tp68
F-87.04450197640033
s(S'2326'
p69
I0
tp70
F5.406807393114807
s(S'1122'
p71
I0
tp72
F-24.212957985264133
s(S'627'
p73
I2
tp74
F50.815265974076716
s(S'219'
p75
I1
tp76
F-24.270157169005408
s(S'2132'
p77
I1
tp78
F-29.147266794186173
s(S'2827'
p79
I0
tp80
F-37.80170880269468
s(S'2932'
p81
I2
tp82
I-198
s(S'1422'
p83
I2
tp84
F-57.93509616662921
s(S'2322'
p85
I1
tp86
F6.811871496744912
s(S'2332'
p87
I1
tp88
F-27.75454210888274
s(S'1732'
p89
I0
tp90
F5.660470861561423
s(S'1419'
p91
I2
tp92
F-16.1225087502848
s(S'321'
p93
I2
tp94
F25.420191384742832
s(S'424'
p95
I2
tp96
F-13.524506391998084
s(S'2627'
p97
I0
tp98
F-0.03477023034059945
s(S'125'
p99
I1
tp100
F38.62039230610142
s(S'1923'
p101
I1
tp102
F-35.624163097542166
s(S'1230'
p103
I1
tp104
F56.01810693009835
s(S'1630'
p105
I1
tp106
F26.728902845096126
s(S'2322'
p107
I2
tp108
F-27.740629572623142
s(S'2631'
p109
I1
tp110
F-25.92665782417762
s(S'2920'
p111
I1
tp112
F4.519490193230984
s(S'1723'
p113
I1
tp114
F-47.489603707420386
s(S'1321'
p115
I0
tp116
F-55.60801502647163
s(S'2228'
p117
I1
tp118
F13.2241230642407
s(S'924'
p119
I2
tp120
F-19.168869076977963
s(S'1725'
p121
I1
tp122
F-32.21753451071769
s(S'1523'
p123
I0
tp124
F-34.103620668217175
s(S'2927'
p125
I0
tp126
F-4.967055163862274
s(S'1828'
p127
I0
tp128
F34.89485524526009
s(S'2123'
p129
I2
tp130
F-34.49391250236871
s(S'1822'
p131
I1
tp132
F-36.23739668681924
s(S'1024'
p133
I1
tp134
F-9.088640880367414
s(S'1719'
p135
I2
tp136
F5.396876523440465
s(S'622'
p137
I2
tp138
F26.910085759429823
s(S'2432'
p139
I0
tp140
I-199
s(S'3031'
p141
I2
tp142
F-43.58898241443463
s(S'2126'
p143
I1
tp144
F-1.494910811502503
s(S'2226'
p145
I0
tp146
F8.454439344804557
s(S'1023'
p147
I0
tp148
F-19.601553411049903
s(S'2325'
p149
I2
tp150
F22.3295628199688
s(S'2130'
p151
I2
tp152
F-162.32611380020253
s(S'1424'
p153
I1
tp154
F-36.34134687069894
s(S'1320'
p155
I0
tp156
F-34.116210540709474
s(S'2127'
p157
I1
tp158
F7.261009109901545
s(S'2524'
p159
I2
tp160
F-55.13437629544787
s(S'3026'
p161
I0
tp162
F-0.9453681042259225
s(S'2421'
p163
I1
tp164
F-35.163797649519935
s(S'1821'
p165
I0
tp166
F-1.0213710794192963
s(S'2128'
p167
I2
tp168
F-54.223697699919455
s(S'327'
p169
I1
tp170
F49.234807924352644
s(S'1620'
p171
I1
tp172
F-88.42381421973202
s(S'1924'
p173
I1
tp174
F-43.08957780037662
s(S'2728'
p175
I1
tp176
F-98.93395265048309
s(S'3021'
p177
I1
tp178
F4.7843539967290045
s(S'2426'
p179
I0
tp180
F-68.84014467720647
s(S'2923'
p181
I1
tp182
F-7.760148189118571
s(S'1632'
p183
I2
tp184
F1.3346687999999998
s(S'921'
p185
I2
tp186
F9.761592826886515
s(S'1326'
p187
I2
tp188
F-24.46626502064856
s(S'2723'
p189
I0
tp190
F10.116896691100253
s(S'2430'
p191
I0
tp192
F-72.35155607760056
s(S'229'
p193
I2
tp194
F51.9784182400635
s(S'1722'
p195
I1
tp196
I-199
s(S'2926'
p197
I2
tp198
F-28.228795109231662
s(S'1124'
p199
I0
tp200
F10.382059494998428
s(S'2122'
p201
I0
tp202
F-38.33578354457061
s(S'1327'
p203
I2
tp204
F-17.579465289418494
s(S'2119'
p205
I1
tp206
F-38.34589285870882
s(S'1027'
p207
I1
tp208
F52.804663010661486
s(S'631'
p209
I1
tp210
F51.93508485483903
s(S'231'
p211
I1
tp212
F24.22471759423772
s(S'2028'
p213
I1
tp214
F31.817696596800744
s(S'3032'
p215
I0
tp216
F-117.85359304278072
s(S'2030'
p217
I1
tp218
F-41.07870914101198
s(S'2825'
p219
I2
tp220
F40.894968161946366
s(S'1420'
p221
I0
tp222
F-61.06662456408981
s(S'825'
p223
I0
tp224
F-7.699562904868898
s(S'2830'
p225
I0
tp226
F-68.7532469180984
s(S'1022'
p227
I2
tp228
F18.16099894104853
s(S'729'
p229
I1
tp230
F52.576754224351724
s(S'2528'
p231
I1
tp232
F-28.471807554923256
s(S'1330'
p233
I2
tp234
F-5.324596813310805
s(S'1931'
p235
I2
tp236
F-18.26805395879029
s(S'1825'
p237
I1
tp238
F-57.878245845113824
s(S'323'
p239
I0
tp240
F31.45667998052761
s(S'1423'
p241
I2
tp242
F-70.2697076731146
s(S'121'
p243
I1
tp244
F25.22266182266398
s(S'1419'
p245
I1
tp246
F-60.776287753913635
s(S'2527'
p247
I0
tp248
F-45.184282279584025
s(S'1524'
p249
I0
tp250
F-28.27645642239658
s(S'426'
p251
I2
tp252
F44.661283009000215
s(S'1627'
p253
I1
tp254
F38.679708993305475
s(S'126'
p255
I0
tp256
F43.606144771760505
s(S'2329'
p257
I2
tp258
F-37.187812940423626
s(S'1323'
p259
I2
tp260
F-4.0104826611529205
s(S'1926'
p261
I2
tp262
F14.854797133362537
s(S'1726'
p263
I2
tp264
F-34.04543601531807
s(S'2427'
p265
I2
tp266
F14.775749905679621
s(S'1120'
p267
I1
tp268
F7.489688136636461
s(S'1429'
p269
I0
tp270
F43.44239620353956
s(S'2632'
p271
I0
tp272
F-29.082535988372054
s(S'025'
p273
I1
tp274
F-28.585823680002697
s(S'1229'
p275
I1
tp276
F48.39722028378566
s(S'528'
p277
I1
tp278
F47.071609128813385
s(S'1621'
p279
I0
tp280
F-21.079122393961047
s(S'2125'
p281
I2
tp282
F-34.507405146443396
s(S'1720'
p283
I2
tp284
F6.56428985924915
s(S'2730'
p285
I1
tp286
I-198
s(S'2928'
p287
I1
tp288
F-72.53768081984714
s(S'2628'
p289
I2
tp290
F-69.57307092510557
s(S'2323'
p291
I2
tp292
F0.07052287275984837
s(S'620'
p293
I2
tp294
F26.41739697584975
s(S'1831'
p295
I1
tp296
I-199
s(S'2826'
p297
I0
tp298
F-23.067741933408577
s(S'1530'
p299
I1
tp300
F50.9382043232261
s(S'618'
p301
I1
tp302
I207
s(S'726'
p303
I1
tp304
F44.83097796088151
s(S'1527'
p305
I0
tp306
F-23.76651620398832
s(S'2225'
p307
I1
tp308
F-62.34724109826708
s(S'1930'
p309
I0
tp310
F-57.399077022833914
s(S'2027'
p311
I1
tp312
F18.94634807735992
s(S'1623'
p313
I2
tp314
F-62.95481512053606
s(S'1020'
p315
I1
tp316
F-28.25327463627413
s(S'2626'
p317
I0
tp318
F-38.34801492687917
s(S'929'
p319
I2
tp320
F51.832256868079924
s(S'2526'
p321
I2
tp322
F-23.614610507793675
s(S'2832'
p323
I1
tp324
F-28.76107525483481
s(S'221'
p325
I0
tp326
F22.711406523992533
s(S'2828'
p327
I2
tp328
F-91.03010079585995
s(S'320'
p329
I2
tp330
F17.904648387281878
s(S'1525'
p331
I1
tp332
F3.083952536815395
s(S'2428'
p333
I2
tp334
F-12.840017292718429
s(S'2328'
p335
I0
tp336
F-35.129021024196646
s(S'029'
p337
I2
tp338
F41.11125328857046
s(S'1625'
p339
I2
tp340
F-38.12307015275016
s(S'1927'
p341
I0
tp342
F-37.20254068868891
s(S'2725'
p343
I2
tp344
F38.76552102365016
s(S'923'
p345
I2
tp346
F1.8426053148724844
s(S'2532'
p347
I0
tp348
F-39.499603121435335
s(S'2429'
p349
I1
tp350
I-199
s(S'1431'
p351
I2
tp352
F-1.3668633564423347
s(S'1829'
p353
I0
tp354
F-41.205995859632125
s(S'2323'
p355
I1
tp356
F-35.346556967950455
s(S'2121'
p357
I1
tp358
F-30.847334895055425
s(S'027'
p359
I2
tp360
F34.480392246721344
s(S'2231'
p361
I1
tp362
F-43.34163710542332
s(S'2519'
p363
I1
tp364
F-38.800000000000004
s(S'3029'
p365
I1
tp366
F-76.79838454061345
s(S'621'
p367
I0
tp368
F25.31403648871907
s(S'1127'
p369
I1
tp370
F-1.088236886415558
s(S'2629'
p371
I0
tp372
F-24.71834866255607
s(S'2732'
p373
I2
tp374
F-10.521447390006841
s(S'2832'
p375
I2
tp376
F-19.75756112854598
s(S'1929'
p377
I1
tp378
F-51.44666674362095
s(S'1020'
p379
I0
tp380
F-23.913974460389753
s(S'022'
p381
I1
tp382
F18.268740339042168
s(S'1431'
p383
I0
tp384
F-21.689651215508874
s(S'2827'
p385
I2
tp386
F16.129585868075715
s(S'2622'
p387
I1
tp388
F1.8724310156737716
s(S'430'
p389
I1
tp390
F50.747724686823496
s(S'2222'
p391
I1
tp392
F8.940712050014938
s(S'225'
p393
I1
tp394
F39.731950697324606
s(S'724'
p395
I2
tp396
F-9.86854505902619
s(S'920'
p397
I1
tp398
F-49.49398386825459
s(S'3027'
p399
I0
tp400
F-24.687602454494893
s(S'2020'
p401
I1
tp402
F-3.0973455617914354
s(S'731'
p403
I2
tp404
F55.37395255546295
s(S'1529'
p405
I0
tp406
F-41.498785628649784
s(S'2423'
p407
I1
tp408
F-37.198670400000005
s(S'2528'
p409
I0
tp410
F-71.96658571476142
s(S'220'
p411
I2
tp412
F20.34389687329541
s(S'721'
p413
I1
tp414
F-24.931419651701326
s(S'2520'
p415
I1
tp416
F5.205929488437603
s(S'1526'
p417
I1
tp418
F17.358363375994898
s(S'1631'
p419
I2
tp420
F3.0642774966886517
s(S'1321'
p421
I2
tp422
F-52.004808457980715
s(S'926'
p423
I2
tp424
F34.33170742708973
s(S'2630'
p425
I2
tp426
F-30.255367010422333
s(S'2724'
p427
I0
tp428
F-17.41709927705543
s(S'1523'
p429
I2
tp430
F-37.67715654240535
s(S'519'
p431
I1
tp432
F13.571068780095867
s(S'925'
p433
I1
tp434
F-6.964001270841649
s(S'2330'
p435
I0
tp436
F-101.25139182181672
s(S'1626'
p437
I1
tp438
F-30.32812147706199
s(S'1719'
p439
I0
tp440
F-37.69527126401555
s(S'622'
p441
I0
tp442
F-23.00644982891706
s(S'3031'
p443
I0
tp444
F-110.5736642338324
s(S'2822'
p445
I0
tp446
F3.9160786799359606
s(S'3021'
p447
I2
tp448
F-28.649705373241034
s(S'2831'
p449
I0
tp450
F-26.721862863380878
s(S'030'
p451
I1
tp452
F-6.303260480203112
s(S'2324'
p453
I1
tp454
I-198
s(S'1221'
p455
I1
tp456
F-23.739133031595735
s(S'1729'
p457
I1
tp458
F32.76597730773509
s(S'520'
p459
I1
tp460
F23.225805564615207
s(S'2024'
p461
I2
tp462
F4.022424070254544
s(S'1932'
p463
I2
tp464
F-37.74
s(S'2930'
p465
I1
tp466
F-53.03968437304793
s(S'1728'
p467
I2
tp468
F-13.895357546416509
s(S'821'
p469
I1
tp470
F-19.861650568788075
s(S'1624'
p471
I2
tp472
F-35.6367144133437
s(S'2620'
p473
I2
tp474
F-38.52197589657874
s(S'2524'
p475
I0
tp476
F7.066979468117288
s(S'2220'
p477
I2
tp478
F-38.82
s(S'1928'
p479
I2
tp480
F-31.775236810111423
s(S'1821'
p481
I2
tp482
F-32.592553677777666
s(S'2128'
p483
I0
tp484
F-0.7367081080481515
s(S'2022'
p485
I2
tp486
F-30.07488677431612
s(S'2625'
p487
I1
tp488
I2
s(S'2523'
p489
I1
tp490
I-198
s(S'1925'
p491
I2
tp492
I-199
s(S'818'
p493
I1
tp494
F7.0
s(S'921'
p495
I0
tp496
F-22.47149588382916
s(S'531'
p497
I2
tp498
F54.21506186570284
s(S'019'
p499
I1
tp500
F15.718527462674697
s(S'1223'
p501
I2
tp502
F-4.214935636769061
s(S'1327'
p503
I1
tp504
F50.138923035395564
s(S'1832'
p505
I2
tp506
F-37.488299072000004
s(S'1127'
p507
I0
tp508
F49.50788434247466
s(S'1124'
p509
I2
tp510
F-24.07997702870134
s(S'2122'
p511
I2
tp512
F-15.551375470977916
s(S'2531'
p513
I1
tp514
F-76.37594266319365
s(S'1723'
p515
I2
tp516
F-3.359266507832479
s(S'2320'
p517
I0
tp518
F2.5639674584622565
s(S'1020'
p519
I2
tp520
F10.058818858879325
s(S'524'
p521
I2
tp522
F28.243724681548787
s(S'2430'
p523
I1
tp524
F-163.43794668658433
s(S'2029'
p525
I2
tp526
F-80.54266175511637
s(S'825'
p527
I2
tp528
F41.250524082080915
s(S'2830'
p529
I2
tp530
F-55.978120244787725
s(S'1629'
p531
I2
tp532
F7.0700225723869945
s(S'2131'
p533
I2
tp534
F-12.98557764801508
s(S'2330'
p535
I1
tp536
F-102.26273874164798
s(S'1931'
p537
I0
tp538
F-65.93596561280796
s(S'1730'
p539
I0
tp540
F-2.0585846105175047
s(S'522'
p541
I2
tp542
F21.981906715622276
s(S'1729'
p543
I0
tp544
F-24.513059742047542
s(S'1824'
p545
I2
tp546
F-48.5712375092964
s(S'722'
p547
I2
tp548
F21.021269573966933
s(S'823'
p549
I2
tp550
F8.353546165913267
s(S'2221'
p551
I0
tp552
F0.6981812746046295
s(S'2425'
p553
I1
tp554
F-31.985239212620495
s(S'3024'
p555
I1
tp556
I-198
s(S'2023'
p557
I0
tp558
F-53.637469915738954
s(S'2329'
p559
I0
tp560
F-79.65321952181974
s(S'1323'
p561
I0
tp562
F-47.419501383130026
s(S'2926'
p563
I1
tp564
F-3.671702097585726
s(S'1626'
p565
I2
tp566
F17.56771742598132
s(S'1926'
p567
I0
tp568
F-24.584963788183693
s(S'2219'
p569
I2
tp570
F2.489283594468465
s(S'2726'
p571
I2
tp572
F28.44303979017568
s(S'2919'
p573
I0
tp574
F2.9039382944023124
s(S'1429'
p575
I2
tp576
F-0.002108117854133784
s(S'2632'
p577
I2
tp578
F-65.76283421611073
s(S'1121'
p579
I2
tp580
F-29.594677631416946
s(S'1324'
p581
I1
tp582
F5.163738440279102
s(S'2131'
p583
I1
tp584
F-39.398543041882625
s(S'2720'
p585
I1
tp586
F3.010530703411015
s(S'228'
p587
I2
tp588
F-6.622159188420902
s(S'1323'
p589
I1
tp590
F-58.88899025414478
s(S'024'
p591
I2
tp592
F-0.8028423027193696
s(S'1720'
p593
I0
tp594
I-200
s(S'128'
p595
I1
tp596
F-0.3396758431426168
s(S'2628'
p597
I0
tp598
F-98.76838844940684
s(S'2731'
p599
I2
tp600
F-70.35324511884706
s(S'418'
p601
I1
tp602
I1
s(S'1021'
p603
I0
tp604
F13.736562081481525
s(S'2124'
p605
I0
tp606
F-0.9891579222823165
s(S'1030'
p607
I1
tp608
F54.97398278428035
s(S'1422'
p609
I1
tp610
F6.31582755046044
s(S'1930'
p611
I2
tp612
I-199
s(S'523'
p613
I0
tp614
F23.00771485209848
s(S'425'
p615
I0
tp616
F32.6570516833748
s(S'2626'
p617
I2
tp618
F20.212754208893116
s(S'1622'
p619
I1
tp620
F0.5407472685286911
s(S'1922'
p621
I1
tp622
I-199
s(S'032'
p623
I0
tp624
F-134.47522493219878
s(S'3023'
p625
I1
tp626
F21.18868994145599
s(S'2424'
p627
I0
tp628
F-39.32774267763551
s(S'2829'
p629
I1
tp630
F-88.4513393864308
s(S'2328'
p631
I2
tp632
F-39.168366395228574
s(S'1625'
p633
I0
tp634
F-4.826163354391319
s(S'1927'
p635
I2
tp636
F-26.60227061440864
s(S'028'
p637
I1
tp638
F-11.598790406703047
s(S'2228'
p639
I2
tp640
F-47.55758267431516
s(S'2532'
p641
I2
tp642
F-39.18812041035535
s(S'1724'
p643
I1
tp644
F-47.88808588740361
s(S'1522'
p645
I0
tp646
F-35.47968058691471
s(S'1829'
p647
I2
tp648
F-37.87378310724487
s(S'2120'
p649
I0
tp650
F0.12270371781319554
s(S'1025'
p651
I1
tp652
F39.730875911685494
s(S'027'
p653
I0
tp654
F-27.937020639683965
s(S'1227'
p655
I0
tp656
F48.38607310994659
s(S'2319'
p657
I0
tp658
I-200
s(S'1721'
p659
I2
tp660
F24.48845542829821
s(S'3030'
p661
I0
tp662
F-71.70371373449953
s(S'2230'
p663
I2
tp664
F-54.443983003122895
s(S'2032'
p665
I1
tp666
F-22.715123812754477
s(S'2629'
p667
I2
tp668
F-92.57827404419876
s(S'2732'
p669
I0
tp670
F-37.624151252816326
s(S'2832'
p671
I0
tp672
F-34.484945714816
s(S'025'
p673
I2
tp674
F39.94635668309887
s(S'1425'
p675
I1
tp676
F39.143352536742015
s(S'2623'
p677
I2
tp678
F14.955901827127954
s(S'1123'
p679
I0
tp680
F-39.0437962316193
s(S'2525'
p681
I0
tp682
F-36.75456240141132
s(S'2223'
p683
I2
tp684
F5.922902454890206
s(S'3027'
p685
I2
tp686
F34.28792547149599
s(S'2123'
p687
I0
tp688
F0.943959769182249
s(S'2420'
p689
I1
tp690
F7.945358232353353
s(S'1826'
p691
I2
tp692
F14.382061892464266
s(S'2129'
p693
I0
tp694
F-104.2679404180854
s(S'2021'
p695
I2
tp696
F-27.87165572972353
s(S'1621'
p697
I1
tp698
F-36.202493343263455
s(S'1322'
p699
I2
tp700
F-58.52980861592644
s(S'2729'
p701
I1
tp702
F-108.64359441205477
s(S'1231'
p703
I0
tp704
F55.2866285031626
s(S'1631'
p705
I0
tp706
F-12.097397172023458
s(S'2419'
p707
I0
tp708
I0
s(S'2630'
p709
I0
tp710
F-77.90088428786504
s(S'2923'
p711
I2
tp712
I-199
s(S'1029'
p713
I2
tp714
F50.094380340124715
s(S'2724'
p715
I2
tp716
F15.946163032396477
s(S'2229'
p717
I0
tp718
F-27.4555001380789
s(S'3022'
p719
I1
tp720
F-26.046802055839855
s(S'1019'
p721
I2
tp722
F-1.6852989128774212
s(S'1123'
p723
I2
tp724
F4.762912766805553
s(S'2321'
p725
I2
tp726
F-34.12922770690408
s(S'322'
p727
I2
tp728
F30.442155424747263
s(S'2321'
p729
I0
tp730
F9.725643427559277
s(S'026'
p731
I2
tp732
F47.86468356855078
s(S'1531'
p733
I2
tp734
F0.41628624037767004
s(S'1027'
p735
I2
tp736
F-6.301724965464274
s(S'2425'
p737
I2
tp738
F13.298453157109122
s(S'2031'
p739
I1
tp740
F-74.71537149673793
s(S'1421'
p741
I2
tp742
F-64.31546010993522
s(S'1129'
p743
I2
tp744
F50.09629492465005
s(S'2529'
p745
I1
tp746
F-22.80619467349927
s(S'2227'
p747
I1
tp748
F-39.04772518155461
s(S'1022'
p749
I1
tp750
I-194
s(S'2124'
p751
I2
tp752
F-28.23799596052479
s(S'1932'
p753
I0
tp754
F11.399901254374857
s(S'1731'
p755
I0
tp756
F-4.184251796851035
s(S'521'
p757
I2
tp758
I6
s(S'1728'
p759
I0
tp760
F-44.78882519871824
s(S'423'
p761
I2
tp762
F22.335036232345054
s(S'2620'
p763
I0
tp764
F10.040944073765198
s(S'725'
p765
I2
tp766
F38.380276102013454
s(S'1329'
p767
I1
tp768
F-13.762844757652225
s(S'820'
p769
I2
tp770
F18.502574433105373
s(S'2220'
p771
I0
tp772
F-36.453295068000564
s(S'223'
p773
I0
tp774
F-6.861794857490452
s(S'2022'
p775
I0
tp776
F-37.15957974531873
s(S'2422'
p777
I2
tp778
F-36.019543872110546
s(S'1820'
p779
I1
tp780
F-27.650254578126926
s(S'1322'
p781
I0
tp782
F-51.04473557971126
s(S'1925'
p783
I0
tp784
F0.9313095729103545
s(S'3020'
p785
I0
tp786
F-36.027509448569916
s(S'2427'
p787
I1
tp788
F-29.927857426223337
s(S'1421'
p789
I0
tp790
F-59.80149527392001
s(S'830'
p791
I2
tp792
F55.365431618713984
s(S'2722'
p793
I1
tp794
I1
s(S'1723'
p795
I0
tp796
F-45.56421177866886
s(S'2226'
p797
I2
tp798
F-25.499214963928576
s(S'2929'
p799
I1
tp800
F-126.38110518955202
s(S'1125'
p801
I1
tp802
F38.96864032939907
s(S'2332'
p803
I0
tp804
I0
s(S'1026'
p805
I0
tp806
F-4.72987785295156
s(S'020'
p807
I1
tp808
F20.077569028292938
s(S'2232'
p809
I2
tp810
F11.370886023017624
s(S'1224'
p811
I1
tp812
F-59.73187576583978
s(S'2029'
p813
I0
tp814
F-71.73350195848548
s(S'025'
p815
I0
tp816
F-11.77867684642733
s(S'2224'
p817
I1
tp818
F-39.82810440987381
s(S'1427'
p819
I1
tp820
F-12.265986085068853
s(S'1226'
p821
I0
tp822
F-10.941344695077312
s(S'2026'
p823
I1
tp824
F-28.289992093638165
s(S'422'
p825
I0
tp826
F27.42539327894053
s(S'1819'
p827
I1
tp828
F5.320310476524411
s(S'2621'
p829
I2
tp830
F11.087223222339734
s(S'1426'
p831
I0
tp832
F-33.18829816832
s(S'2221'
p833
I2
tp834
F-36.11554508694441
s(S'122'
p835
I2
tp836
F27.268199144513545
s(S'2526'
p837
I1
tp838
F-35.451813898508554
s(S'2023'
p839
I2
tp840
F3.6282259168005453
s(S'2130'
p841
I0
tp842
F-111.81821411519095
s(S'1524'
p843
I1
tp844
F-44.2734812404008
s(S'1823'
p845
I1
tp846
F-41.984063366760324
s(S'1626'
p847
I0
tp848
F-39.27686336256
s(S'127'
p849
I1
tp850
F48.328389682561685
s(S'2428'
p851
I1
tp852
F-97.72284604061687
s(S'2925'
p853
I2
tp854
F42.865818658509134
s(S'1121'
p855
I0
tp856
F5.922901347109245
s(S'923'
p857
I1
tp858
F5.991975386139844
s(S'1428'
p859
I1
tp860
F49.937884770370594
s(S'1431'
p861
I1
tp862
F56.62172174328706
s(S'024'
p863
I0
tp864
F8.406798550285941
s(S'1830'
p865
I1
tp866
F21.131088514682745
s(S'931'
p867
I2
tp868
F55.631206507262206
s(S'3029'
p869
I2
tp870
F22.460840346204805
s(S'3021'
p871
I0
tp872
F13.337251275610992
s(S'1131'
p873
I1
tp874
F56.23877748673135
s(S'032'
p875
I1
tp876
F-160.2608556803827
s(S'2326'
p877
I1
tp878
F9.541343916115775
s(S'1223'
p879
I1
tp880
F-40.49438349675408
s(S'526'
p881
I1
tp882
F47.024639812041045
s(S'2132'
p883
I0
tp884
F0.18000000000000002
s(S'1329'
p885
I2
tp886
F40.71246575374159
s(S'2827'
p887
I1
tp888
F-36.53193429825402
s(S'2932'
p889
I1
tp890
F-61.80221820714191
s(S'827'
p891
I1
tp892
F52.117439114352266
s(S'727'
p893
I0
tp894
F49.3530533467211
s(S'1528'
p895
I2
tp896
F-28.72821977894771
s(S'2725'
p897
I1
tp898
F-35.87244322627649
s(S'822'
p899
I2
tp900
F19.107796237596446
s(S'2627'
p901
I1
tp902
F15.947526630652405
s(S'1520'
p903
I0
tp904
F-70.08459164150065
s(S'2521'
p905
I1
tp906
F9.638959176864368
s(S'1824'
p907
I0
tp908
F-46.51442586749098
s(S'2424'
p909
I2
tp910
F14.109929961456245
s(S'1630'
p911
I0
tp912
F-0.7658286195796187
s(S'1222'
p913
I1
tp914
F15.217125780494154
s(S'2631'
p915
I0
tp916
F-48.99430108289944
s(S'3019'
p917
I0
tp918
F4.194891143499633
s(S'1321'
p919
I1
tp920
F-21.52655155075099
s(S'828'
p921
I2
tp922
F51.814832385263976
s(S'2228'
p923
I0
tp924
F-29.926884479623315
s(S'924'
p925
I1
tp926
F22.59175921044919
s(S'1523'
p927
I1
tp928
F-5.287188734921395
s(S'1828'
p929
I1
tp930
F-29.75009712414521
s(S'2322'
p931
I0
tp932
F-29.78477363384701
s(S'1227'
p933
I2
tp934
F-9.092628402461099
s(S'1024'
p935
I2
tp936
F9.348109067871093
s(S'3030'
p937
I2
tp938
F-52.5653601872934
s(S'2230'
p939
I0
tp940
F-69.69444026419471
s(S'2831'
p941
I2
tp942
F-59.44001429794302
s(S'3028'
p943
I0
tp944
F-66.83279562557418
s(S'2432'
p945
I1
tp946
F10.241420739991451
s(S'920'
p947
I0
tp948
F-29.266032471858153
s(S'319'
p949
I1
tp950
F10.208475972071756
s(S'030'
p951
I2
tp952
F36.834220529242536
s(S'1221'
p953
I2
tp954
I-199
s(S'2820'
p955
I1
tp956
F4.18487293017542
s(S'2623'
p957
I0
tp958
F-38.604371852288
s(S'2930'
p959
I2
tp960
F-6.317381638208556
s(S'1424'
p961
I2
tp962
F-39.77411853776779
s(S'2525'
p963
I2
tp964
F25.92595743862201
s(S'2223'
p965
I0
tp966
F-38.14148648714685
s(S'224'
p967
I0
tp968
F34.57150284689827
s(S'2129'
p969
I2
tp970
F-101.19119801360395
s(S'2421'
p971
I2
tp972
F2.0184294766777433
s(S'124'
p973
I2
tp974
F32.29891938232239
s(S'2624'
p975
I1
tp976
F8.268157197659942
s(S'1924'
p977
I0
tp978
F-42.15985068501773
s(S'2523'
p979
I2
tp980
F-9.103601354582246
s(S'920'
p981
I2
tp982
F-7.520760560247547
s(S'018'
p983
I1
tp984
F22.475090449566366
s(S'2923'
p985
I0
tp986
F-43.39725548646082
s(S'1326'
p987
I1
tp988
F34.853928542506694
s(S'1525'
p989
I0
tp990
F-33.60694691454388
s(S'2229'
p991
I2
tp992
F-75.85063464849169
s(S'1219'
p993
I0
tp994
F1.8140972799999995
s(S'2530'
p995
I1
tp996
F-49.66579417783076
s(S'1722'
p997
I0
tp998
F-50.775598218363385
s(S'1822'
p999
I0
tp1000
F-34.637975530839356
s(S'2122'
p1001
I1
tp1002
F-37.19357490486482
s(S'2119'
p1003
I2
tp1004
F1.3599999999999999
s(S'1320'
p1005
I1
tp1006
F-0.30300649900497056
s(S'2431'
p1007
I1
tp1008
I-199
s(S'2028'
p1009
I0
tp1010
F-25.78722568400406
s(S'1420'
p1011
I1
tp1012
F4.535089151699225
s(S'2830'
p1013
I1
tp1014
F-12.550265418607575
s(S'031'
p1015
I0
tp1016
F-122.96626444590916
s(S'1220'
p1017
I0
tp1018
F-55.95881074572083
s(S'2528'
p1019
I2
tp1020
F-81.40088530527638
s(S'1731'
p1021
I2
tp1022
F-1.7224277010766844
s(S'521'
p1023
I0
tp1024
F-24.911401520635824
s(S'331'
p1025
I0
tp1026
F47.63943655406609
s(S'1330'
p1027
I0
tp1028
F52.18070752856831
s(S'1825'
p1029
I0
tp1030
F-36.59883498667197
s(S'2931'
p1031
I0
tp1032
F-80.44613355304735
s(S'1427'
p1033
I0
tp1034
F-13.678957555265544
s(S'1920'
p1035
I1
tp1036
F1.424375187759245
s(S'223'
p1037
I2
tp1038
F-7.856981442016824
s(S'3025'
p1039
I1
tp1040
F-26.550964766438447
s(S'2422'
p1041
I0
tp1042
F3.286484821632259
s(S'324'
p1043
I0
tp1044
F34.25683560939241
s(S'1627'
p1045
I0
tp1046
F-23.83793974250541
s(S'2727'
p1047
I0
tp1048
F-14.186935797853748
s(S'2522'
p1049
I0
tp1050
F-2.6326140903518596
s(S'3020'
p1051
I2
tp1052
F-27.68026271631203
s(S'1726'
p1053
I1
tp1054
F16.597537532394437
s(S'1520'
p1055
I2
tp1056
F-73.37847255880726
s(S'2922'
p1057
I2
tp1058
F13.090524966156849
s(S'1120'
p1059
I0
tp1060
F-6.4866536957737155
s(S'2632'
p1061
I1
tp1062
F-20.221921716074675
s(S'1324'
p1063
I2
tp1064
F-42.55816265300578
s(S'2723'
p1065
I2
tp1066
F-28.81512697737422
s(S'2125'
p1067
I1
tp1068
F-18.9720136054571
s(S'1522'
p1069
I1
tp1070
F-50.3630576165926
s(S'2730'
p1071
I0
tp1072
F-74.88192530426443
s(S'2928'
p1073
I2
tp1074
F-36.1065042594279
s(S'1026'
p1075
I2
tp1076
F-15.704883499461161
s(S'1423'
p1077
I1
tp1078
F-63.31500413002001
s(S'229'
p1079
I0
tp1080
I5
s(S'1628'
p1081
I0
tp1082
F-24.053953066066793
s(S'726'
p1083
I0
tp1084
F-2.920866477877972
s(S'226'
p1085
I2
tp1086
F45.47698629052857
s(S'2331'
p1087
I0
tp1088
F-70.0970702890795
s(S'1930'
p1089
I1
tp1090
F9.249392363797355
s(S'2823'
p1091
I0
tp1092
F-31.10822205244998
s(S'1219'
p1093
I2
tp1094
F-37.57788038175849
s(S'1426'
p1095
I2
tp1096
F25.036987537539076
s(S'1623'
p1097
I1
tp1098
F-58.0863984955654
s(S'1922'
p1099
I2
tp1100
F7.402786916355726
s(S'2423'
p1101
I2
tp1102
F10.511031496581472
s(S'2828'
p1103
I1
tp1104
F-41.80245649592547
s(S'1919'
p1105
I2
tp1106
F-32.04120561784686
s(S'1525'
p1107
I2
tp1108
F-38.11524126321005
s(S'3018'
p1109
I0
tp1110
I1
s(S'2328'
p1111
I1
tp1112
F-62.5682450728391
s(S'029'
p1113
I1
tp1114
F-66.59239115923552
s(S'1927'
p1115
I1
tp1116
F28.09351299049159
s(S'1419'
p1117
I0
tp1118
F-40.0
s(S'2121'
p1119
I2
tp1120
I1
s(S'1724'
p1121
I2
tp1122
F-2.5107081482798494
s(S'2429'
p1123
I2
tp1124
F-90.76347272384845
s(S'831'
p1125
I2
tp1126
F55.90814396198644
s(S'2323'
p1127
I0
tp1128
I-200
s(S'1325'
p1129
I0
tp1130
F-29.43966506931985
s(S'2231'
p1131
I0
tp1132
F-21.600003595631705
s(S'2519'
p1133
I2
tp1134
I1
s(S'3029'
p1135
I0
tp1136
F-85.4552344595525
s(S'129'
p1137
I0
tp1138
F44.94500079588756
s(S'2127'
p1139
I2
tp1140
F-8.298753063599351
s(S'330'
p1141
I0
tp1142
F48.7747726625422
s(S'1929'
p1143
I2
tp1144
F-4.868796770006195
s(S'1530'
p1145
I0
tp1146
I0
s(S'626'
p1147
I2
tp1148
F43.008507747515985
s(S'1031'
p1149
I0
tp1150
F54.8224305336364
s(S'2331'
p1151
I2
tp1152
F0.6769170916507967
s(S'619'
p1153
I2
tp1154
F10.767659071999999
s(S'2622'
p1155
I0
tp1156
F-37.17817410659155
s(S'1619'
p1157
I0
tp1158
F1.813536
s(S'2222'
p1159
I0
tp1160
F-28.354467990178314
s(S'2019'
p1161
I2
tp1162
F15.541881838200613
s(S'2131'
p1163
I0
tp1164
I-200
s(S'2020'
p1165
I0
tp1166
I-200
s(S'1529'
p1167
I1
tp1168
F45.488953569201605
s(S'1621'
p1169
I2
tp1170
I-199
s(S'1923'
p1171
I0
tp1172
F-9.746611945329079
s(S'2729'
p1173
I2
tp1174
F-43.02413729800611
s(S'1630'
p1175
I2
tp1176
F-36.83925708840511
s(S'3022'
p1177
I0
tp1178
F14.01198057366865
s(S'1526'
p1179
I0
tp1180
F-33.932585788737775
s(S'1624'
p1181
I1
tp1182
F-24.838115498650616
s(S'2724'
p1183
I1
tp1184
I1
s(S'2427'
p1185
I0
tp1186
I-199
s(S'1725'
p1187
I0
tp1188
F-28.569739284248566
s(S'3026'
p1189
I2
tp1190
F-11.321423045859131
s(S'2927'
p1191
I1
tp1192
F14.542616712810588
s(S'1123'
p1193
I1
tp1194
F-39.500646520298105
s(S'925'
p1195
I2
tp1196
F40.47118012299529
s(S'2021'
p1197
I1
tp1198
F-36.64207305712677
s(S'1024'
p1199
I0
tp1200
F-28.539760855643436
s(S'026'
p1201
I1
tp1202
F-9.108982064675295
s(S'1226'
p1203
I1
tp1204
F-8.465113194382262
s(S'3028'
p1205
I2
tp1206
F-85.66771018569571
s(S'3031'
p1207
I1
tp1208
F-49.4104192772059
s(S'1820'
p1209
I0
tp1210
I-199
s(S'2031'
p1211
I2
tp1212
F-18.333732104724607
s(S'2126'
p1213
I0
tp1214
F2.7744570033570275
s(S'1629'
p1215
I1
tp1216
F47.59174684278119
s(S'2226'
p1217
I1
tp1218
F-0.6708092924892366
s(S'030'
p1219
I0
tp1220
I-200
s(S'1023'
p1221
I1
tp1222
F7.438628178549718
s(S'625'
p1223
I0
tp1224
F36.52426039106271
s(S'2624'
p1225
I0
tp1226
F20.758940656230866
s(S'2024'
p1227
I1
tp1228
F-47.721208139879636
s(S'1527'
p1229
I2
tp1230
F-26.730800978541634
s(S'420'
p1231
I0
tp1232
F21.59725656840525
s(S'1832'
p1233
I0
tp1234
F-38.653554329600006
s(S'2821'
p1235
I2
tp1236
F6.945343165793242
s(S'2930'
p1237
I0
tp1238
F-64.70428723581827
s(S'431'
p1239
I2
tp1240
F52.810429132572644
s(S'821'
p1241
I0
tp1242
F16.611771240679563
s(S'2727'
p1243
I2
tp1244
F23.042772046977106
s(S'2524'
p1245
I1
tp1246
F-53.20426515367055
s(S'2423'
p1247
I0
tp1248
F-38.741148096120284
s(S'427'
p1249
I1
tp1250
F50.520998018361844
s(S'1821'
p1251
I1
tp1252
I1
s(S'2128'
p1253
I1
tp1254
F-29.433533178306448
s(S'1620'
p1255
I0
tp1256
I-200
s(S'1924'
p1257
I2
tp1258
F-2.352130729870191
s(S'2728'
p1259
I0
tp1260
F-98.21918213706802
s(S'2523'
p1261
I0
tp1262
F-35.92228187799437
s(S'2426'
p1263
I1
tp1264
I-198
s(S'921'
p1265
I1
tp1266
F-22.508767260029614
s(S'1825'
p1267
I2
tp1268
F-6.368211983121684
s(S'2723'
p1269
I1
tp1270
F-33.687887111413254
s(S'1722'
p1271
I2
tp1272
F-1.4536900609656707
s(S'1124'
p1273
I1
tp1274
F-17.434271642651815
s(S'926'
p1275
I0
tp1276
F-7.8179056609245166
s(S'2119'
p1277
I0
tp1278
F-39.2
s(S'2320'
p1279
I1
tp1280
F-33.4976418684079
s(S'2822'
p1281
I1
tp1282
F-37.91928156098086
s(S'1225'
p1283
I1
tp1284
F35.497424644495226
s(S'2028'
p1285
I2
tp1286
F-23.01721025745154
s(S'3032'
p1287
I1
tp1288
F-90.28798772078986
s(S'2030'
p1289
I0
tp1290
F-61.12477144885416
s(S'1629'
p1291
I0
tp1292
F-36.12298253804265
s(S'031'
p1293
I2
tp1294
F-13.785128356387638
s(S'021'
p1295
I0
tp1296
F17.982793580421962
s(S'1220'
p1297
I2
tp1298
F-54.228164205167936
s(S'2224'
p1299
I2
tp1300
F-36.830282522739004
s(S'2124'
p1301
I1
tp1302
F-57.53611577626151
s(S'2426'
p1303
I2
tp1304
F16.038245192261453
s(S'718'
p1305
I0
tp1306
I5
s(S'1730'
p1307
I1
tp1308
F29.568472276741073
s(S'2931'
p1309
I2
tp1310
F-27.043078856013864
s(S'1225'
p1311
I0
tp1312
F-6.399521425792223
s(S'2527'
p1313
I1
tp1314
F-43.16591424821032
s(S'2221'
p1315
I1
tp1316
F-1.6681395791468052
s(S'1921'
p1317
I2
tp1318
F-7.894982575196872
s(S'222'
p1319
I1
tp1320
F27.91511473917091
s(S'2629'
p1321
I1
tp1322
F-72.78842434064359
s(S'2023'
p1323
I1
tp1324
F-50.05983618661126
s(S'1627'
p1325
I2
tp1326
F-25.049184124439844
s(S'126'
p1327
I1
tp1328
F-4.696563428629418
s(S'1823'
p1329
I2
tp1330
F-0.9405810338017004
s(S'1531'
p1331
I0
tp1332
F-30.216781384235773
s(S'2522'
p1333
I2
tp1334
F-31.18139476120122
s(S'922'
p1335
I1
tp1336
F24.126309565959627
s(S'1429'
p1337
I1
tp1338
F-2.4464579163803606
s(S'1430'
p1339
I1
tp1340
F53.299894950146346
s(S'1324'
p1341
I0
tp1342
F-46.999069306122365
s(S'1921'
p1343
I1
tp1344
I-199
s(S'2721'
p1345
I2
tp1346
F7.141612327294423
s(S'927'
p1347
I2
tp1348
F-4.39368660400703
s(S'1830'
p1349
I2
tp1350
F-57.521173591052076
s(S'2730'
p1351
I2
tp1352
F-61.22256187743888
s(S'2928'
p1353
I0
tp1354
F-75.04876937548102
s(S'1126'
p1355
I2
tp1356
F-23.247460649018123
s(S'2327'
p1357
I1
tp1358
F-29.611386005518884
s(S'2819'
p1359
I2
tp1360
F1.9868963214921491
s(S'023'
p1361
I2
tp1362
F37.76482817034951
s(S'2826'
p1363
I1
tp1364
F-19.553880109573296
s(S'526'
p1365
I2
tp1366
F-3.0058610007907802
s(S'1222'
p1367
I2
tp1368
F-21.501072424911563
s(S'1628'
p1369
I2
tp1370
F2.1225008751252155
s(S'726'
p1371
I2
tp1372
I1
s(S'432'
p1373
I0
tp1374
F21.218559712895114
s(S'2225'
p1375
I0
tp1376
F-45.70983542220289
s(S'1822'
p1377
I2
tp1378
I-199
s(S'2823'
p1379
I2
tp1380
F4.107379474985741
s(S'523'
p1381
I1
tp1382
F-5.2411206006218976
s(S'2027'
p1383
I0
tp1384
F-24.129366577033544
s(S'2626'
p1385
I1
tp1386
F-34.633450452424796
s(S'1622'
p1387
I2
tp1388
F-46.107307399240945
s(S'1922'
p1389
I0
tp1390
F-45.095167271565636
s(S'720'
p1391
I2
tp1392
F24.114474669450665
s(S'428'
p1393
I0
tp1394
F46.27589574682896
s(S'2921'
p1395
I0
tp1396
I0
s(S'2829'
p1397
I2
tp1398
F8.0120057865067
s(S'1530'
p1399
I2
tp1400
F-0.05920308832176846
s(S'1130'
p1401
I0
tp1402
F54.73389078289919
s(S'028'
p1403
I2
tp1404
F-79.9069750508009
s(S'529'
p1405
I0
tp1406
F50.54580772866252
s(S'2532'
p1407
I1
tp1408
F-60.99118943655557
s(S'1724'
p1409
I0
tp1410
F-50.7425596670617
s(S'2429'
p1411
I0
tp1412
F-59.60340861412276
s(S'1829'
p1413
I1
tp1414
F22.738622696978975
s(S'1531'
p1415
I1
tp1416
F53.355128603894116
s(S'1325'
p1417
I2
tp1418
F-25.863485103883825
s(S'1529'
p1419
I2
tp1420
F-30.81308337904415
s(S'1025'
p1421
I0
tp1422
F-11.398586916650345
s(S'2231'
p1423
I2
tp1424
F-49.98243212573909
s(S'2319'
p1425
I1
tp1426
I-199
s(S'1831'
p1427
I0
tp1428
F-20.886139404670647
s(S'2032'
p1429
I2
tp1430
F-38.44
s(S'2127'
p1431
I0
tp1432
F-4.332281884275035
s(S'328'
p1433
I2
tp1434
F46.53055666269871
s(S'1730'
p1435
I2
tp1436
F-58.55299787218232
s(S'1929'
p1437
I0
tp1438
F-51.17972799426395
s(S'928'
p1439
I0
tp1440
F51.851624347558406
s(S'022'
p1441
I0
tp1442
F-23.404953090350254
s(S'1221'
p1443
I0
tp1444
F-2.4319518248358247
s(S'527'
p1445
I0
tp1446
F49.416528128402845
s(S'2622'
p1447
I2
tp1448
F-62.70822755903379
s(S'1425'
p1449
I0
tp1450
F-32.27272403465748
s(S'2222'
p1451
I2
tp1452
I-199
s(S'2731'
p1453
I0
tp1454
F-64.58665390499715
s(S'2824'
p1455
I2
tp1456
F25.786440580051433
s(S'3027'
p1457
I1
tp1458
F-24.652557347603683
s(S'2020'
p1459
I2
tp1460
F-35.79051307708504
s(S'2332'
p1461
I2
tp1462
F-0.485823500964099
s(S'326'
p1463
I0
tp1464
F45.98722602467026
s(S'1928'
p1465
I1
tp1466
F34.67139829257858
s(S'1923'
p1467
I2
tp1468
F-39.30498901463416
s(S'2624'
p1469
I2
tp1470
I-198
s(S'721'
p1471
I0
tp1472
F-15.511696813334858
s(S'2729'
p1473
I0
tp1474
F-107.63330183073109
s(S'2520'
p1475
I0
tp1476
F-37.310203389822675
s(S'1631'
p1477
I1
tp1478
F-25.447952645606925
s(S'1727'
p1479
I1
tp1480
F32.5774126399975
s(S'2630'
p1481
I1
tp1482
F-63.8021833109282
s(S'2229'
p1483
I1
tp1484
F-100.2329691472861
s(S'1725'
p1485
I2
tp1486
F-1.290996145345018
s(S'925'
p1487
I0
tp1488
F-7.853436393993594
s(S'2530'
p1489
I2
tp1490
F-76.45642936263035
s(S'1319'
p1491
I1
tp1492
F6.431990007758453
s(S'2625'
p1493
I0
tp1494
F28.664881504388923
s(S'1119'
p1495
I2
tp1496
F10.556664005750994
s(S'1719'
p1497
I1
tp1498
F-37.7915008
s(S'2031'
p1499
I0
tp1500
F-87.5525834487602
s(S'2126'
p1501
I2
tp1502
F-24.96550379349594
s(S'2431'
p1503
I2
tp1504
F-37.34158951299138
s(S'1421'
p1505
I1
tp1506
F-37.89188531641431
s(S'2831'
p1507
I1
tp1508
F-32.23545490474301
s(S'2324'
p1509
I0
tp1510
F-33.262210733387825
s(S'728'
p1511
I0
tp1512
F50.220036392258116
s(S'2529'
p1513
I0
tp1514
F-66.46144112259731
s(S'2227'
p1515
I2
tp1516
F7.783572656415852
s(S'2130'
p1517
I1
tp1518
F-59.28665277040178
s(S'1932'
p1519
I1
tp1520
F-32.325028546880986
s(S'2025'
p1521
I2
tp1522
F6.097833445872093
s(S'2123'
p1523
I1
tp1524
F3.0741105691725306
s(S'1022'
p1525
I0
tp1526
F-18.422011571948794
s(S'3025'
p1527
I2
tp1528
F41.046264060650316
s(S'1620'
p1529
I2
tp1530
F-29.70921396712941
s(S'1820'
p1531
I2
tp1532
F-36.047840789335055
s(S'2728'
p1533
I2
tp1534
F-41.744849480322
s(S'1925'
p1535
I1
tp1536
F-39.56532405981789
s(S'1220'
p1537
I1
tp1538
F-50.478353741524955
s(S'1122'
p1539
I2
tp1540
F-35.37254096976657
s(S'119'
p1541
I2
tp1542
F10.539542042586822
s(S'019'
p1543
I0
tp1544
F-25.53811438192252
s(S'1327'
p1545
I0
tp1546
F-10.854729933243583
s(S'424'
p1547
I0
tp1548
F29.333168218747936
s(S'229'
p1549
I1
tp1550
F-29.967095269662526
s(S'2722'
p1551
I2
tp1552
F-33.01150118002641
s(S'2025'
p1553
I0
tp1554
F-31.323315964421823
s(S'2531'
p1555
I0
tp1556
F-52.459264671021536
s(S'2727'
p1557
I1
tp1558
F-27.27796748695436
s(S'2929'
p1559
I0
tp1560
F-37.072458290391914
s(S'1125'
p1561
I2
tp1562
F-18.296391398700667
s(S'2631'
p1563
I2
tp1564
I-199
s(S'1026'
p1565
I1
tp1566
F41.22136929425559
s(S'623'
p1567
I2
tp1568
F13.814706055260455
s(S'2030'
p1569
I2
tp1570
F-68.03250067050337
s(S'120'
p1571
I2
tp1572
F21.29736887652877
s(S'525'
p1573
I2
tp1574
F35.27463716220905
s(S'2029'
p1575
I1
tp1576
F-44.14350054088131
s(S'2327'
p1577
I2
tp1578
F-37.38523660605029
s(S'824'
p1579
I2
tp1580
F9.78431066340321
s(S'2224'
p1581
I0
tp1582
F-40.425243701242174
s(S'227'
p1583
I0
tp1584
F46.243890441447164
s(S'2330'
p1585
I2
tp1586
F-91.66420736491835
s(S'1931'
p1587
I1
tp1588
F-35.94959356239579
s(S'2026'
p1589
I0
tp1590
I1
s(S'1819'
p1591
I2
tp1592
F-38.704800000000006
s(S'1824'
p1593
I1
tp1594
F1.3392522841768297
s(S'1426'
p1595
I1
tp1596
F-31.65568448648131
s(S'1921'
p1597
I0
tp1598
F-39.55000093602746
s(S'723'
p1599
I2
tp1600
F15.048641756322429
s(S'3024'
p1601
I0
tp1602
F-8.147008927103105
s(S'429'
p1603
I0
tp1604
F48.6959331672238
s(S'1823'
p1605
I0
tp1606
F-41.99023906164076
s(S'2329'
p1607
I1
tp1608
F-116.3195287512544
s(S'325'
p1609
I1
tp1610
F41.61023235602838
s(S'1131'
p1611
I0
tp1612
F-10.013291482037442
s(S'1926'
p1613
I1
tp1614
F-59.401050055720404
s(S'629'
p1615
I2
tp1616
F52.247898468880145
s(S'1727'
p1617
I0
tp1618
F-24.582441189796384
s(S'2428'
p1619
I0
tp1620
F-65.81683670351433
s(S'1121'
p1621
I1
tp1622
F-31.57310997253351
s(S'1521'
p1623
I2
tp1624
F15.336445554222006
s(S'1320'
p1625
I2
tp1626
F3.603827290572725
s(S'1228'
p1627
I1
tp1628
F52.6469452146741
s(S'1830'
p1629
I0
tp1630
F-53.60534403040428
s(S'1720'
p1631
I1
tp1632
F-41.45595776969435
s(S'1126'
p1633
I0
tp1634
F37.30959419140614
s(S'2628'
p1635
I1
tp1636
F-95.84859472391295
s(S'3025'
p1637
I0
tp1638
F-35.11981412769926
s(S'2731'
p1639
I1
tp1640
F-8.902216649100733
s(S'1928'
p1641
I0
tp1642
F-37.42100195366794
s(S'2326'
p1643
I2
tp1644
F-33.015069439125
s(S'023'
p1645
I0
tp1646
F-19.368943044843768
s(S'1223'
p1647
I0
tp1648
F-35.02727665004517
s(S'1727'
p1649
I2
tp1650
F15.990115512281804
s(S'2932'
p1651
I0
tp1652
F-46.858667130067204
s(S'1422'
p1653
I0
tp1654
F-66.65180897470604
s(S'2225'
p1655
I2
tp1656
F11.37404452248689
s(S'2027'
p1657
I2
tp1658
F-36.00890993250211
s(S'1528'
p1659
I1
tp1660
F45.307892181258865
s(S'1127'
p1661
I2
tp1662
F-12.39869454326691
s(S'1827'
p1663
I1
tp1664
F-27.999408439890484
s(S'228'
p1665
I0
tp1666
F35.893672752349524
s(S'1622'
p1667
I0
tp1668
F-19.821138000356335
s(S'123'
p1669
I1
tp1670
F39.45381542211253
s(S'2627'
p1671
I2
tp1672
F-39.18595227621737
s(S'3026'
p1673
I1
tp1674
F25.322510599476995
s(S'2424'
p1675
I1
tp1676
F-52.49047961214248
s(S'2921'
p1677
I2
tp1678
F12.841380128264708
s(S'2829'
p1679
I0
tp1680
F-55.339631655684386
s(S'131'
p1681
I2
tp1682
F37.88563734791228
s(S'829'
p1683
I2
tp1684
F51.87983373225799
s(S'1625'
p1685
I1
tp1686
F-41.896241449622956
s(S'028'
p1687
I0
tp1688
F-18.60121757001904
s(S'719'
p1689
I0
tp1690
F12.871771363341072
s(S'628'
p1691
I0
tp1692
F50.957348921385
s(S'530'
p1693
I0
tp1694
F51.356777267198446
s(S'1122'
p1695
I1
tp1696
F14.44592614966743
s(S'924'
p1697
I0
tp1698
F-12.762324402342404
s(S'3022'
p1699
I2
tp1700
F4.278438041436555
s(S'2927'
p1701
I2
tp1702
F-8.109860739787422
s(S'1828'
p1703
I2
tp1704
F-12.638460601580258
s(S'1025'
p1705
I2
tp1706
F-22.586830045502076
s(S'027'
p1707
I1
tp1708
F-30.50396684681398
s(S'623'
p1709
I1
tp1710
F-14.806803808096507
s(S'1831'
p1711
I2
tp1712
F-16.247105505945907
s(S'930'
p1713
I1
tp1714
F54.41945792333334
s(S'3030'
p1715
I1
tp1716
F-14.231699603449908
s(S'2230'
p1717
I1
tp1718
F-50.50770870004562
s(S'2032'
p1719
I0
tp1720
F1.26
s(S'3028'
p1721
I1
tp1722
F-50.671089998648085
s(S'2432'
p1723
I2
tp1724
F-16.50477667036655
s(S'2732'
p1725
I1
tp1726
F-43.69620463026393
s(S'1526'
p1727
I2
tp1728
F-13.949118612213793
s(S'022'
p1729
I2
tp1730
F-25.147696164406618
s(S'1023'
p1731
I2
tp1732
F-1.1772622824460797
s(S'1226'
p1733
I2
tp1734
F18.270036981044647
s(S'421'
p1735
I2
tp1736
F24.080389905232654
s(S'1425'
p1737
I2
tp1738
F-30.01519366563123
s(S'826'
p1739
I2
tp1740
F38.81414598665112
s(S'2327'
p1741
I0
tp1742
F5.000374202126894
s(S'2623'
p1743
I1
tp1744
F-39.90558756155372
s(S'724'
p1745
I1
tp1746
F24.42577785220412
s(S'1328'
p1747
I2
tp1748
F48.83137322613456
s(S'2525'
p1749
I1
tp1750
F-31.62302686211497
s(S'2223'
p1751
I1
tp1752
F-32.081050340358075
s(S'2120'
p1753
I1
tp1754
F-34.68233785262744
s(S'419'
p1755
I1
tp1756
F15.659665639657556
s(S'2026'
p1757
I2
tp1758
F10.359120878506136
s(S'2129'
p1759
I1
tp1760
F-26.33527460590293
s(S'919'
p1761
I1
tp1762
F10.573842832958144
s(S'730'
p1763
I0
tp1764
F53.97383652076518
s(S'1528'
p1765
I0
tp1766
F31.64109851770958
s(S'1224'
p1767
I2
tp1768
F-2.760914368656162
s(S'721'
p1769
I2
tp1770
F10.228459573039721
s(S'2120'
p1771
I2
tp1772
F-32.161024231882365
s(S'1128'
p1773
I0
tp1774
F51.62399058180014
s(S'1827'
p1775
I0
tp1776
F17.882329538459498
s(S'130'
p1777
I0
tp1778
F45.01513238944204
s(S'1527'
p1779
I1
tp1780
F39.078369634942206
s(S'1326'
p1781
I0
tp1782
F-21.634027192170368
s(S'1028'
p1783
I2
tp1784
F51.83549143024224
s(S'1729'
p1785
I2
tp1786
F-16.86132841992444
s(S'2530'
p1787
I0
tp1788
F-87.48790865945884
s(S'2926'
p1789
I0
tp1790
F18.513164341445847
s(S'2321'
p1791
I1
tp1792
I-198
s(S'230'
p1793
I2
tp1794
F47.16824884854812
s(S'1225'
p1795
I2
tp1796
F-46.700298733674074
s(S'2824'
p1797
I1
tp1798
F-1.1124944965165353
s(S'2431'
p1799
I0
tp1800
I-200
s(S'329'
p1801
I2
tp1802
F51.42383677998157
s(S'3032'
p1803
I2
tp1804
F-78.75075599103047
s(S'2324'
p1805
I2
tp1806
F11.832256558765797
s(S'1420'
p1807
I2
tp1808
F-65.14157690596144
s(S'2529'
p1809
I2
tp1810
F-78.04751366476187
s(S'2227'
p1811
I0
tp1812
F-5.285823007633339
s(S'031'
p1813
I1
tp1814
F-87.87141807097383
s(S'1331'
p1815
I1
tp1816
F55.95765272475781
s(S'624'
p1817
I1
tp1818
F30.46940042096654
s(S'1731'
p1819
I1
tp1820
F24.398659069236096
s(S'521'
p1821
I1
tp1822
F24.483594911230558
s(S'1728'
p1823
I1
tp1824
F40.67319644743324
s(S'2422'
p1825
I1
tp1826
F-37.02117965509804
s(S'2620'
p1827
I1
tp1828
F-36.149147949650455
s(S'2931'
p1829
I1
tp1830
F-85.49331112608971
s(S'1329'
p1831
I0
tp1832
F46.53696336783897
s(S'820'
p1833
I1
tp1834
F-17.17177107685744
s(S'2220'
p1835
I1
tp1836
F0.8460883404300878
s(S'223'
p1837
I1
tp1838
F39.129604126711634
s(S'2527'
p1839
I2
tp1840
F15.52187440495522
s(S'1427'
p1841
I2
tp1842
F40.54141825072397
s(S'2022'
p1843
I1
tp1844
F6.606212945264946
s(S'2625'
p1845
I2
tp1846
F-27.984548466575752
s(S'1322'
p1847
I1
tp1848
F5.199369573312863
s(S'2132'
p1849
I2
tp1850
F13.436121396378802
s(S'2025'
p1851
I1
tp1852
F-33.91618853743721
s(S'2522'
p1853
I1
tp1854
F6.18138429690319
s(S'1726'
p1855
I0
tp1856
F-49.75678100075741
s(S'1520'
p1857
I1
tp1858
F-44.86743164073683
s(S'819'
p1859
I1
tp1860
F14.253210727619742
s(S'922'
p1861
I2
tp1862
F-1.6045654673366307
s(S'118'
p1863
I1
tp1864
I7
s(S'1430'
p1865
I2
tp1866
F-17.233990261001416
s(S'128'
p1867
I2
tp1868
F39.16853007595688
s(S'2722'
p1869
I0
tp1870
F-37.12519354991023
s(S'2531'
p1871
I2
tp1872
F-33.56368142045272
s(S'2125'
p1873
I0
tp1874
F-37.21097670697467
s(S'2121'
p1875
I0
tp1876
I0
s(S'2929'
p1877
I2
tp1878
F-88.36887767575294
s(S'1125'
p1879
I0
tp1880
F-18.18649019839198
s(S'927'
p1881
I1
tp1882
F51.99566248947965
s.